Archive member included because of file (symbol)

/home/cnlohr/esp8266/esp_iot_sdk_v1.1.0/lib/libmain.a(eagle_lib.o)
                              /tmp/ccdGDhN7.o (symbol from plugin) (ets_sprintf)
/home/cnlohr/esp8266/esp_iot_sdk_v1.1.0/lib/libmain.a(ets_timer.o)
                              /tmp/ccdGDhN7.o (symbol from plugin) (ets_timer_arm_new)
/home/cnlohr/esp8266/esp_iot_sdk_v1.1.0/lib/libmain.a(mem_manager.o)
                              /tmp/ccdGDhN7.o (symbol from plugin) (pvPortZalloc)
/home/cnlohr/esp8266/esp_iot_sdk_v1.1.0/lib/libmain.a(spi_flash.o)
                              /tmp/ccxoLx4N.o (symbol from plugin) (spi_flash_erase_sector)
/home/cnlohr/esp8266/esp_iot_sdk_v1.1.0/lib/libmain.a(spi_overlap.o)
                              /home/cnlohr/esp8266/esp_iot_sdk_v1.1.0/lib/libmain.a(spi_flash.o) (overlap_hspi_read_data)
/home/cnlohr/esp8266/esp_iot_sdk_v1.1.0/lib/libmain.a(user_interface.o)
                              /home/cnlohr/esp8266/esp_iot_sdk_v1.1.0/lib/libmain.a(ets_timer.o) (timer2_ms_flag)
/home/cnlohr/esp8266/esp_iot_sdk_v1.1.0/lib/libmain.a(debug-vector.o)
                              (_DebugExceptionVector)
/home/cnlohr/esp8266/esp_iot_sdk_v1.1.0/lib/libmain.a(double-vector.o)
                              (_DoubleExceptionVector)
/home/cnlohr/esp8266/esp_iot_sdk_v1.1.0/lib/libmain.a(kernel-vector.o)
                              (_KernelExceptionVector)
/home/cnlohr/esp8266/esp_iot_sdk_v1.1.0/lib/libmain.a(nmi-vector.o)
                              (_NMIExceptionVector)
/home/cnlohr/esp8266/esp_iot_sdk_v1.1.0/lib/libmain.a(user-vector.o)
                              (_UserExceptionVector)
/home/cnlohr/esp8266/esp_iot_sdk_v1.1.0/lib/libmain.a(vector.o)
                              (call_user_start)
/home/cnlohr/esp8266/esp_iot_sdk_v1.1.0/lib/libmain.a(app_main.o)
                              /home/cnlohr/esp8266/esp_iot_sdk_v1.1.0/lib/libmain.a(user_interface.o) (info)
/home/cnlohr/esp8266/esp_iot_sdk_v1.1.0/lib/libmain.a(eagle_lwip_if.o)
                              /home/cnlohr/esp8266/esp_iot_sdk_v1.1.0/lib/libmain.a(user_interface.o) (eagle_lwip_getif)
/home/cnlohr/esp8266/esp_iot_sdk_v1.1.0/lib/libnet80211.a(ieee80211.o)
                              /home/cnlohr/esp8266/esp_iot_sdk_v1.1.0/lib/libmain.a(user_interface.o) (g_ic)
/home/cnlohr/esp8266/esp_iot_sdk_v1.1.0/lib/libnet80211.a(ieee80211_crypto.o)
                              /home/cnlohr/esp8266/esp_iot_sdk_v1.1.0/lib/libnet80211.a(ieee80211.o) (ieee80211_crypto_attach)
/home/cnlohr/esp8266/esp_iot_sdk_v1.1.0/lib/libnet80211.a(ieee80211_hostap.o)
                              /home/cnlohr/esp8266/esp_iot_sdk_v1.1.0/lib/libmain.a(user_interface.o) (wifi_softap_start)
/home/cnlohr/esp8266/esp_iot_sdk_v1.1.0/lib/libnet80211.a(ieee80211_ht.o)
                              /home/cnlohr/esp8266/esp_iot_sdk_v1.1.0/lib/libmain.a(user_interface.o) (ieee80211_ht_attach)
/home/cnlohr/esp8266/esp_iot_sdk_v1.1.0/lib/libnet80211.a(ieee80211_input.o)
                              /home/cnlohr/esp8266/esp_iot_sdk_v1.1.0/lib/libnet80211.a(ieee80211_hostap.o) (ieee80211_decap)
/home/cnlohr/esp8266/esp_iot_sdk_v1.1.0/lib/libnet80211.a(ieee80211_output.o)
                              /home/cnlohr/esp8266/esp_iot_sdk_v1.1.0/lib/libmain.a(eagle_lwip_if.o) (ieee80211_output_pbuf)
/home/cnlohr/esp8266/esp_iot_sdk_v1.1.0/lib/libnet80211.a(ieee80211_phy.o)
                              /home/cnlohr/esp8266/esp_iot_sdk_v1.1.0/lib/libnet80211.a(ieee80211.o) (ieee80211_get_ratetable)
/home/cnlohr/esp8266/esp_iot_sdk_v1.1.0/lib/libnet80211.a(ieee80211_power.o)
                              /home/cnlohr/esp8266/esp_iot_sdk_v1.1.0/lib/libnet80211.a(ieee80211_hostap.o) (ieee80211_psq_init)
/home/cnlohr/esp8266/esp_iot_sdk_v1.1.0/lib/libnet80211.a(ieee80211_proto.o)
                              /home/cnlohr/esp8266/esp_iot_sdk_v1.1.0/lib/libnet80211.a(ieee80211_hostap.o) (ieee80211_addr_bcast)
/home/cnlohr/esp8266/esp_iot_sdk_v1.1.0/lib/libnet80211.a(ieee80211_scan.o)
                              /home/cnlohr/esp8266/esp_iot_sdk_v1.1.0/lib/libmain.a(user_interface.o) (scannum)
/home/cnlohr/esp8266/esp_iot_sdk_v1.1.0/lib/libnet80211.a(ieee80211_sta.o)
                              /home/cnlohr/esp8266/esp_iot_sdk_v1.1.0/lib/libmain.a(user_interface.o) (ieee80211_sta_new_state)
/home/cnlohr/esp8266/esp_iot_sdk_v1.1.0/lib/libnet80211.a(wl_chm.o)
                              /home/cnlohr/esp8266/esp_iot_sdk_v1.1.0/lib/libnet80211.a(ieee80211.o) (chm_init)
/home/cnlohr/esp8266/esp_iot_sdk_v1.1.0/lib/libnet80211.a(wl_cnx.o)
                              /home/cnlohr/esp8266/esp_iot_sdk_v1.1.0/lib/libmain.a(user_interface.o) (sta_con_timer)
/home/cnlohr/esp8266/esp_iot_sdk_v1.1.0/lib/libnet80211.a(ieee80211_action.o)
                              /home/cnlohr/esp8266/esp_iot_sdk_v1.1.0/lib/libnet80211.a(ieee80211_ht.o) (ieee80211_send_action_register)
/home/cnlohr/esp8266/esp_iot_sdk_v1.1.0/lib/libnet80211.a(ieee80211_ets.o)
                              /home/cnlohr/esp8266/esp_iot_sdk_v1.1.0/lib/libnet80211.a(ieee80211_ht.o) (ieee80211_getmgtframe)
/home/cnlohr/esp8266/esp_iot_sdk_v1.1.0/lib/liblwip.a(dhcp.o)
                              /home/cnlohr/esp8266/esp_iot_sdk_v1.1.0/lib/libnet80211.a(wl_cnx.o) (dhcp_release)
/home/cnlohr/esp8266/esp_iot_sdk_v1.1.0/lib/liblwip.a(dhcpserver.o)
                              /home/cnlohr/esp8266/esp_iot_sdk_v1.1.0/lib/libmain.a(user_interface.o) (dhcps_start)
/home/cnlohr/esp8266/esp_iot_sdk_v1.1.0/lib/liblwip.a(dns.o)
                              /home/cnlohr/esp8266/esp_iot_sdk_v1.1.0/lib/liblwip.a(dhcp.o) (dns_setserver)
/home/cnlohr/esp8266/esp_iot_sdk_v1.1.0/lib/liblwip.a(espconn.o)
                              /tmp/ccdGDhN7.o (symbol from plugin) (espconn_create)
/home/cnlohr/esp8266/esp_iot_sdk_v1.1.0/lib/liblwip.a(espconn_tcp.o)
                              /home/cnlohr/esp8266/esp_iot_sdk_v1.1.0/lib/liblwip.a(espconn.o) (espconn_tcp_disconnect)
/home/cnlohr/esp8266/esp_iot_sdk_v1.1.0/lib/liblwip.a(espconn_udp.o)
                              /home/cnlohr/esp8266/esp_iot_sdk_v1.1.0/lib/liblwip.a(espconn.o) (espconn_udp_sent)
/home/cnlohr/esp8266/esp_iot_sdk_v1.1.0/lib/liblwip.a(etharp.o)
                              /home/cnlohr/esp8266/esp_iot_sdk_v1.1.0/lib/libmain.a(eagle_lwip_if.o) (etharp_output)
/home/cnlohr/esp8266/esp_iot_sdk_v1.1.0/lib/liblwip.a(igmp.o)
                              /home/cnlohr/esp8266/esp_iot_sdk_v1.1.0/lib/liblwip.a(espconn_udp.o) (igmp_joingroup)
/home/cnlohr/esp8266/esp_iot_sdk_v1.1.0/lib/liblwip.a(inet_chksum.o)
                              /home/cnlohr/esp8266/esp_iot_sdk_v1.1.0/lib/liblwip.a(igmp.o) (inet_chksum)
/home/cnlohr/esp8266/esp_iot_sdk_v1.1.0/lib/liblwip.a(init.o)
                              /home/cnlohr/esp8266/esp_iot_sdk_v1.1.0/lib/libmain.a(app_main.o) (lwip_init)
/home/cnlohr/esp8266/esp_iot_sdk_v1.1.0/lib/liblwip.a(ip_addr.o)
                              /home/cnlohr/esp8266/esp_iot_sdk_v1.1.0/lib/liblwip.a(dhcp.o) (ip_addr_any)
/home/cnlohr/esp8266/esp_iot_sdk_v1.1.0/lib/liblwip.a(ip.o)
                              /home/cnlohr/esp8266/esp_iot_sdk_v1.1.0/lib/liblwip.a(etharp.o) (ip_input)
/home/cnlohr/esp8266/esp_iot_sdk_v1.1.0/lib/liblwip.a(mdns.o)
                              /home/cnlohr/esp8266/esp_iot_sdk_v1.1.0/lib/liblwip.a(espconn_udp.o) (mdns_close)
/home/cnlohr/esp8266/esp_iot_sdk_v1.1.0/lib/liblwip.a(memp.o)
                              /home/cnlohr/esp8266/esp_iot_sdk_v1.1.0/lib/liblwip.a(etharp.o) (memp_sizes)
/home/cnlohr/esp8266/esp_iot_sdk_v1.1.0/lib/liblwip.a(netif.o)
                              /home/cnlohr/esp8266/esp_iot_sdk_v1.1.0/lib/liblwip.a(dhcp.o) (netif_list)
/home/cnlohr/esp8266/esp_iot_sdk_v1.1.0/lib/liblwip.a(pbuf.o)
                              /home/cnlohr/esp8266/esp_iot_sdk_v1.1.0/lib/libnet80211.a(ieee80211_hostap.o) (pbuf_alloc)
/home/cnlohr/esp8266/esp_iot_sdk_v1.1.0/lib/liblwip.a(raw.o)
                              /home/cnlohr/esp8266/esp_iot_sdk_v1.1.0/lib/liblwip.a(ip.o) (raw_input)
/home/cnlohr/esp8266/esp_iot_sdk_v1.1.0/lib/liblwip.a(tcp_in.o)
                              /home/cnlohr/esp8266/esp_iot_sdk_v1.1.0/lib/liblwip.a(ip.o) (tcp_input)
/home/cnlohr/esp8266/esp_iot_sdk_v1.1.0/lib/liblwip.a(tcp.o)
                              /home/cnlohr/esp8266/esp_iot_sdk_v1.1.0/lib/liblwip.a(espconn_tcp.o) (tcp_active_pcbs)
/home/cnlohr/esp8266/esp_iot_sdk_v1.1.0/lib/liblwip.a(tcp_out.o)
                              /home/cnlohr/esp8266/esp_iot_sdk_v1.1.0/lib/liblwip.a(tcp.o) (tcp_send_fin)
/home/cnlohr/esp8266/esp_iot_sdk_v1.1.0/lib/liblwip.a(timers.o)
                              /home/cnlohr/esp8266/esp_iot_sdk_v1.1.0/lib/liblwip.a(espconn_udp.o) (sys_timeout)
/home/cnlohr/esp8266/esp_iot_sdk_v1.1.0/lib/liblwip.a(udp.o)
                              /home/cnlohr/esp8266/esp_iot_sdk_v1.1.0/lib/liblwip.a(ip.o) (udp_input)
/home/cnlohr/esp8266/esp_iot_sdk_v1.1.0/lib/liblwip.a(icmp.o)
                              /home/cnlohr/esp8266/esp_iot_sdk_v1.1.0/lib/liblwip.a(ip.o) (icmp_input)
/home/cnlohr/esp8266/esp_iot_sdk_v1.1.0/lib/libwpa.a(ap_config.o)
                              /home/cnlohr/esp8266/esp_iot_sdk_v1.1.0/lib/libnet80211.a(ieee80211_hostap.o) (hostapd_setup_wpa_psk)
/home/cnlohr/esp8266/esp_iot_sdk_v1.1.0/lib/libwpa.a(common.o)
                              /tmp/cc9sP7z9.o (symbol from plugin) (hex2byte)
/home/cnlohr/esp8266/esp_iot_sdk_v1.1.0/lib/libwpa.a(os_xtensa.o)
                              /home/cnlohr/esp8266/esp_iot_sdk_v1.1.0/lib/libwpa.a(common.o) (os_get_time)
/home/cnlohr/esp8266/esp_iot_sdk_v1.1.0/lib/libwpa.a(wpa_auth.o)
                              /home/cnlohr/esp8266/esp_iot_sdk_v1.1.0/lib/libnet80211.a(ieee80211_hostap.o) (wpa_init)
/home/cnlohr/esp8266/esp_iot_sdk_v1.1.0/lib/libwpa.a(wpa_auth_ie.o)
                              /home/cnlohr/esp8266/esp_iot_sdk_v1.1.0/lib/libwpa.a(wpa_auth.o) (wpa_auth_gen_wpa_ie)
/home/cnlohr/esp8266/esp_iot_sdk_v1.1.0/lib/libwpa.a(wpa.o)
                              /home/cnlohr/esp8266/esp_iot_sdk_v1.1.0/lib/libnet80211.a(ieee80211_sta.o) (wpa_sm_rx_eapol)
/home/cnlohr/esp8266/esp_iot_sdk_v1.1.0/lib/libwpa.a(wpa_common.o)
                              /home/cnlohr/esp8266/esp_iot_sdk_v1.1.0/lib/libwpa.a(wpa_auth_ie.o) (wpa_parse_wpa_ie_rsn)
/home/cnlohr/esp8266/esp_iot_sdk_v1.1.0/lib/libwpa.a(wpa_debug.o)
                              /home/cnlohr/esp8266/esp_iot_sdk_v1.1.0/lib/libwpa.a(wpa_auth.o) (eloop_cancel_timeout)
/home/cnlohr/esp8266/esp_iot_sdk_v1.1.0/lib/libwpa.a(wpa_ie.o)
                              /home/cnlohr/esp8266/esp_iot_sdk_v1.1.0/lib/libnet80211.a(ieee80211_scan.o) (wpa_parse_wpa_ie)
/home/cnlohr/esp8266/esp_iot_sdk_v1.1.0/lib/libwpa.a(wpa_main.o)
                              /home/cnlohr/esp8266/esp_iot_sdk_v1.1.0/lib/libnet80211.a(wl_cnx.o) (ppInstallKey)
/home/cnlohr/esp8266/esp_iot_sdk_v1.1.0/lib/libwpa.a(wpas_glue.o)
                              /home/cnlohr/esp8266/esp_iot_sdk_v1.1.0/lib/libwpa.a(wpa.o) (wpa_sm_alloc_eapol)
/home/cnlohr/esp8266/esp_iot_sdk_v1.1.0/lib/libwpa.a(aes-wrap.o)
                              /home/cnlohr/esp8266/esp_iot_sdk_v1.1.0/lib/libwpa.a(wpa_auth.o) (aes_wrap)
/home/cnlohr/esp8266/esp_iot_sdk_v1.1.0/lib/libwpa.a(aes-internal-enc.o)
                              /home/cnlohr/esp8266/esp_iot_sdk_v1.1.0/lib/libwpa.a(aes-wrap.o) (aes_encrypt_init)
/home/cnlohr/esp8266/esp_iot_sdk_v1.1.0/lib/libnet80211.a(ieee80211_crypto_ccmp.o)
                              /home/cnlohr/esp8266/esp_iot_sdk_v1.1.0/lib/libwpa.a(wpa_auth.o) (ccmp)
/home/cnlohr/esp8266/esp_iot_sdk_v1.1.0/lib/libnet80211.a(ieee80211_crypto_tkip.o)
                              /home/cnlohr/esp8266/esp_iot_sdk_v1.1.0/lib/libwpa.a(wpa_auth.o) (tkip)
/home/cnlohr/esp8266/esp_iot_sdk_v1.1.0/lib/libnet80211.a(ieee80211_crypto_wep.o)
                              /home/cnlohr/esp8266/esp_iot_sdk_v1.1.0/lib/libwpa.a(wpa_auth.o) (wep)
/home/cnlohr/esp8266/esp_iot_sdk_v1.1.0/lib/libphy.a(phy.o)
                              /home/cnlohr/esp8266/esp_iot_sdk_v1.1.0/lib/libnet80211.a(wl_chm.o) (phy_change_channel)
/home/cnlohr/esp8266/esp_iot_sdk_v1.1.0/lib/libphy.a(phy_chip_v6_ana.o)
                              /home/cnlohr/esp8266/esp_iot_sdk_v1.1.0/lib/libmain.a(user_interface.o) (test_tout)
/home/cnlohr/esp8266/esp_iot_sdk_v1.1.0/lib/libphy.a(phy_chip_v6.o)
                              /home/cnlohr/esp8266/esp_iot_sdk_v1.1.0/lib/libphy.a(phy_chip_v6_ana.o) (g_phyFuns)
/home/cnlohr/esp8266/esp_iot_sdk_v1.1.0/lib/libphy.a(phy_chip_v6_cal.o)
                              /home/cnlohr/esp8266/esp_iot_sdk_v1.1.0/lib/libphy.a(phy_chip_v6.o) (loop_pwctrl_pwdet_error_accum_high_power)
/home/cnlohr/esp8266/esp_iot_sdk_v1.1.0/lib/libphy.a(phy_chip_v6_unused.o)
                              /home/cnlohr/esp8266/esp_iot_sdk_v1.1.0/lib/libphy.a(phy_chip_v6.o) (chip_v6_set_sense)
/home/cnlohr/esp8266/esp_iot_sdk_v1.1.0/lib/libphy.a(phy_sleep.o)
                              /home/cnlohr/esp8266/esp_iot_sdk_v1.1.0/lib/libphy.a(phy_chip_v6.o) (pm_set_sleep_cycles)
/home/cnlohr/esp8266/esp_iot_sdk_v1.1.0/lib/libpp.a(esf_buf.o)
                              /home/cnlohr/esp8266/esp_iot_sdk_v1.1.0/lib/libnet80211.a(ieee80211_output.o) (esf_buf_alloc)
/home/cnlohr/esp8266/esp_iot_sdk_v1.1.0/lib/libpp.a(if_hwctrl.o)
                              /home/cnlohr/esp8266/esp_iot_sdk_v1.1.0/lib/libmain.a(user_interface.o) (ic_set_vif)
/home/cnlohr/esp8266/esp_iot_sdk_v1.1.0/lib/libpp.a(lmac.o)
                              /home/cnlohr/esp8266/esp_iot_sdk_v1.1.0/lib/libmain.a(app_main.o) (lmacInit)
/home/cnlohr/esp8266/esp_iot_sdk_v1.1.0/lib/libpp.a(pm.o)
                              /home/cnlohr/esp8266/esp_iot_sdk_v1.1.0/lib/libmain.a(user_interface.o) (pm_rtc_clock_cali_proc)
/home/cnlohr/esp8266/esp_iot_sdk_v1.1.0/lib/libpp.a(pp.o)
                              /home/cnlohr/esp8266/esp_iot_sdk_v1.1.0/lib/libpp.a(pm.o) (pend_flag_noise_check)
/home/cnlohr/esp8266/esp_iot_sdk_v1.1.0/lib/libpp.a(rate_control.o)
                              /home/cnlohr/esp8266/esp_iot_sdk_v1.1.0/lib/libpp.a(lmac.o) (RC_SetBasicRate)
/home/cnlohr/esp8266/esp_iot_sdk_v1.1.0/lib/libpp.a(trc.o)
                              /home/cnlohr/esp8266/esp_iot_sdk_v1.1.0/lib/libpp.a(if_hwctrl.o) (rcUpdatePhyMode)
/home/cnlohr/esp8266/esp_iot_sdk_v1.1.0/lib/libpp.a(wdev.o)
                              /home/cnlohr/esp8266/esp_iot_sdk_v1.1.0/lib/libpp.a(esf_buf.o) (wDevCtrl)
/home/cnlohr/esp8266/esp-open-sdk/xtensa-lx106-elf/lib/gcc/xtensa-lx106-elf/4.8.2/libgcc.a(_divsi3.o)
                              /home/cnlohr/esp8266/esp_iot_sdk_v1.1.0/lib/libnet80211.a(ieee80211.o) (__divsi3)
/home/cnlohr/esp8266/esp-open-sdk/xtensa-lx106-elf/lib/gcc/xtensa-lx106-elf/4.8.2/libgcc.a(_modsi3.o)
                              /home/cnlohr/esp8266/esp_iot_sdk_v1.1.0/lib/libnet80211.a(ieee80211_ht.o) (__modsi3)
/home/cnlohr/esp8266/esp-open-sdk/xtensa-lx106-elf/lib/gcc/xtensa-lx106-elf/4.8.2/libgcc.a(_udivsi3.o)
                              /home/cnlohr/esp8266/esp_iot_sdk_v1.1.0/lib/libmain.a(eagle_lib.o) (__udivsi3)
/home/cnlohr/esp8266/esp-open-sdk/xtensa-lx106-elf/lib/gcc/xtensa-lx106-elf/4.8.2/libgcc.a(_umodsi3.o)
                              /home/cnlohr/esp8266/esp_iot_sdk_v1.1.0/lib/libmain.a(eagle_lib.o) (__umodsi3)
/home/cnlohr/esp8266/esp-open-sdk/xtensa-lx106-elf/lib/gcc/xtensa-lx106-elf/4.8.2/libgcc.a(_ashrdi3.o)
                              /home/cnlohr/esp8266/esp_iot_sdk_v1.1.0/lib/libphy.a(phy_chip_v6.o) (__ashrdi3)
/home/cnlohr/esp8266/esp-open-sdk/xtensa-lx106-elf/lib/gcc/xtensa-lx106-elf/4.8.2/libgcc.a(_addsubsf3.o)
                              /home/cnlohr/esp8266/esp_iot_sdk_v1.1.0/lib/libphy.a(phy_chip_v6_ana.o) (__addsf3)
/home/cnlohr/esp8266/esp-open-sdk/xtensa-lx106-elf/lib/gcc/xtensa-lx106-elf/4.8.2/libgcc.a(_mulsf3.o)
                              /home/cnlohr/esp8266/esp_iot_sdk_v1.1.0/lib/libphy.a(phy_chip_v6_ana.o) (__mulsf3)
/home/cnlohr/esp8266/esp-open-sdk/xtensa-lx106-elf/lib/gcc/xtensa-lx106-elf/4.8.2/libgcc.a(_divsf3.o)
                              /home/cnlohr/esp8266/esp_iot_sdk_v1.1.0/lib/libphy.a(phy_chip_v6_ana.o) (__divsf3)
/home/cnlohr/esp8266/esp-open-sdk/xtensa-lx106-elf/lib/gcc/xtensa-lx106-elf/4.8.2/libgcc.a(_fixsfsi.o)
                              /home/cnlohr/esp8266/esp_iot_sdk_v1.1.0/lib/libphy.a(phy_chip_v6.o) (__fixsfsi)
/home/cnlohr/esp8266/esp-open-sdk/xtensa-lx106-elf/lib/gcc/xtensa-lx106-elf/4.8.2/libgcc.a(_fixunssfsi.o)
                              /home/cnlohr/esp8266/esp_iot_sdk_v1.1.0/lib/libphy.a(phy_chip_v6_ana.o) (__fixunssfsi)
/home/cnlohr/esp8266/esp-open-sdk/xtensa-lx106-elf/lib/gcc/xtensa-lx106-elf/4.8.2/libgcc.a(_floatsisf.o)
                              /home/cnlohr/esp8266/esp_iot_sdk_v1.1.0/lib/libphy.a(phy_chip_v6.o) (__floatunsisf)
/home/cnlohr/esp8266/esp-open-sdk/xtensa-lx106-elf/lib/gcc/xtensa-lx106-elf/4.8.2/libgcc.a(_muldf3.o)
                              /home/cnlohr/esp8266/esp_iot_sdk_v1.1.0/lib/libphy.a(phy_chip_v6.o) (__muldf3)
/home/cnlohr/esp8266/esp-open-sdk/xtensa-lx106-elf/lib/gcc/xtensa-lx106-elf/4.8.2/libgcc.a(_divdf3.o)
                              /home/cnlohr/esp8266/esp_iot_sdk_v1.1.0/lib/libphy.a(phy_chip_v6_ana.o) (__divdf3)
/home/cnlohr/esp8266/esp-open-sdk/xtensa-lx106-elf/lib/gcc/xtensa-lx106-elf/4.8.2/libgcc.a(_fixdfsi.o)
                              /home/cnlohr/esp8266/esp_iot_sdk_v1.1.0/lib/libphy.a(phy_chip_v6.o) (__fixdfsi)
/home/cnlohr/esp8266/esp-open-sdk/xtensa-lx106-elf/lib/gcc/xtensa-lx106-elf/4.8.2/libgcc.a(_floatsidf.o)
                              /home/cnlohr/esp8266/esp_iot_sdk_v1.1.0/lib/libphy.a(phy_chip_v6_ana.o) (__floatunsidf)
/home/cnlohr/esp8266/esp-open-sdk/xtensa-lx106-elf/lib/gcc/xtensa-lx106-elf/4.8.2/libgcc.a(_truncdfsf2.o)
                              /home/cnlohr/esp8266/esp_iot_sdk_v1.1.0/lib/libphy.a(phy_chip_v6_ana.o) (__truncdfsf2)
/home/cnlohr/esp8266/esp-open-sdk/xtensa-lx106-elf/lib/gcc/xtensa-lx106-elf/4.8.2/libgcc.a(_muldi3.o)
                              /home/cnlohr/esp8266/esp_iot_sdk_v1.1.0/lib/libmain.a(user_interface.o) (__muldi3)
/home/cnlohr/esp8266/esp-open-sdk/xtensa-lx106-elf/lib/gcc/xtensa-lx106-elf/4.8.2/libgcc.a(_popcountsi2.o)
                              /home/cnlohr/esp8266/esp_iot_sdk_v1.1.0/lib/libpp.a(if_hwctrl.o) (__popcountsi2)
/home/cnlohr/esp8266/esp-open-sdk/xtensa-lx106-elf/lib/gcc/xtensa-lx106-elf/4.8.2/libgcc.a(_divdi3.o)
                              /home/cnlohr/esp8266/esp_iot_sdk_v1.1.0/lib/libphy.a(phy_chip_v6_cal.o) (__divdi3)
/home/cnlohr/esp8266/esp-open-sdk/xtensa-lx106-elf/lib/gcc/xtensa-lx106-elf/4.8.2/libgcc.a(_umoddi3.o)
                              /home/cnlohr/esp8266/esp_iot_sdk_v1.1.0/lib/libpp.a(pm.o) (__umoddi3)
/home/cnlohr/esp8266/esp-open-sdk/xtensa-lx106-elf/lib/gcc/xtensa-lx106-elf/4.8.2/libgcc.a(_umulsidi3.o)
                              /home/cnlohr/esp8266/esp-open-sdk/xtensa-lx106-elf/lib/gcc/xtensa-lx106-elf/4.8.2/libgcc.a(_muldi3.o) (__umulsidi3)
/home/cnlohr/esp8266/esp-open-sdk/xtensa-lx106-elf/lib/gcc/xtensa-lx106-elf/4.8.2/libgcc.a(_popcount_tab.o)
                              /home/cnlohr/esp8266/esp-open-sdk/xtensa-lx106-elf/lib/gcc/xtensa-lx106-elf/4.8.2/libgcc.a(_popcountsi2.o) (__popcount_tab)
/home/cnlohr/esp8266/esp-open-sdk/xtensa-lx106-elf/lib/gcc/xtensa-lx106-elf/4.8.2/libgcc.a(_extendsfdf2.o)
                              /tmp/cc1kLqWr.ltrans1.ltrans.o (__extendsfdf2)

Allocating common symbols
Common symbol       size              file

bmp_degc            0x2               /tmp/ccb4gMLs.o (symbol from plugin)
bmp_pa              0x4               /tmp/ccb4gMLs.o (symbol from plugin)
calgyro             0xc               /tmp/ccxoLx4N.o (symbol from plugin)
pressure            0x4               /tmp/ccxoLx4N.o (symbol from plugin)
calmag              0xc               /tmp/ccxoLx4N.o (symbol from plugin)
calacc              0xc               /tmp/ccxoLx4N.o (symbol from plugin)
bmptemp             0x2               /tmp/ccxoLx4N.o (symbol from plugin)
jr                  0x4               /tmp/ccdGDhN7.o (symbol from plugin)
totalscan           0x424             /tmp/ccxoLx4N.o (symbol from plugin)
procTaskQueue       0x8               /tmp/ccdGDhN7.o (symbol from plugin)
curdata             0x4               /tmp/cc9sP7z9.o (symbol from plugin)
curlen              0x2               /tmp/cc9sP7z9.o (symbol from plugin)
gMotors             0x4               /tmp/ccxoLx4N.o (symbol from plugin)

Discarded input sections

 .text          0x0000000000000000        0x0 /tmp/ccD0XWq7.o (symbol from plugin)
 .data          0x0000000000000000        0x0 /tmp/cc1kLqWr.ltrans0.ltrans.o
 .xt.lit        0x0000000000000000       0x10 /tmp/cc1kLqWr.ltrans0.ltrans.o
 .xt.prop       0x0000000000000000      0x9c0 /tmp/cc1kLqWr.ltrans0.ltrans.o
 .xt.lit        0x0000000000000000       0x10 /tmp/cc1kLqWr.ltrans1.ltrans.o
 .xt.prop       0x0000000000000000      0x8ac /tmp/cc1kLqWr.ltrans1.ltrans.o
 .data          0x0000000000000000        0x0 /tmp/cc1kLqWr.ltrans2.ltrans.o
 .xt.lit        0x0000000000000000        0x8 /tmp/cc1kLqWr.ltrans2.ltrans.o
 .xt.prop       0x0000000000000000      0x27c /tmp/cc1kLqWr.ltrans2.ltrans.o
 .text          0x0000000000000000        0x0 /tmp/ccTVUk8r.o (symbol from plugin)
 .text          0x0000000000000000        0x0 /tmp/ccb8aiUM.o (symbol from plugin)
 .text          0x0000000000000000        0x0 /tmp/ccdGDhN7.o (symbol from plugin)
 .text          0x0000000000000000        0x0 /tmp/ccb4gMLs.o (symbol from plugin)
 .text          0x0000000000000000        0x0 /tmp/ccxoLx4N.o (symbol from plugin)
 .text          0x0000000000000000        0x0 /tmp/cc9sP7z9.o (symbol from plugin)
 .text          0x0000000000000000        0x0 /tmp/ccTnNM9u.o (symbol from plugin)
 .text          0x0000000000000000        0x0 /tmp/ccPYRjOQ.o (symbol from plugin)
 .text          0x0000000000000000        0x0 /tmp/ccVKB0Ac.o (symbol from plugin)
 .text          0x0000000000000000        0x0 /tmp/cchzMpty.o (symbol from plugin)
 .text          0x0000000000000000        0x0 /tmp/ccZcGZpU.o (symbol from plugin)
 .irom0.literal
                0x0000000000000000        0x0 /home/cnlohr/esp8266/esp_iot_sdk_v1.1.0/lib/libmain.a(eagle_lib.o)
 .text          0x0000000000000000        0x0 /home/cnlohr/esp8266/esp_iot_sdk_v1.1.0/lib/libmain.a(eagle_lib.o)
 .data          0x0000000000000000        0x0 /home/cnlohr/esp8266/esp_iot_sdk_v1.1.0/lib/libmain.a(eagle_lib.o)
 .bss           0x0000000000000000        0x0 /home/cnlohr/esp8266/esp_iot_sdk_v1.1.0/lib/libmain.a(eagle_lib.o)
 .xt.lit        0x0000000000000000       0x18 /home/cnlohr/esp8266/esp_iot_sdk_v1.1.0/lib/libmain.a(eagle_lib.o)
 .xt.prop       0x0000000000000000      0x60c /home/cnlohr/esp8266/esp_iot_sdk_v1.1.0/lib/libmain.a(eagle_lib.o)
 .literal       0x0000000000000000        0x0 /home/cnlohr/esp8266/esp_iot_sdk_v1.1.0/lib/libmain.a(ets_timer.o)
 .data          0x0000000000000000        0x0 /home/cnlohr/esp8266/esp_iot_sdk_v1.1.0/lib/libmain.a(ets_timer.o)
 .bss           0x0000000000000000        0x0 /home/cnlohr/esp8266/esp_iot_sdk_v1.1.0/lib/libmain.a(ets_timer.o)
 .xt.lit        0x0000000000000000        0x8 /home/cnlohr/esp8266/esp_iot_sdk_v1.1.0/lib/libmain.a(ets_timer.o)
 .xt.prop       0x0000000000000000       0xc0 /home/cnlohr/esp8266/esp_iot_sdk_v1.1.0/lib/libmain.a(ets_timer.o)
 .literal       0x0000000000000000        0x0 /home/cnlohr/esp8266/esp_iot_sdk_v1.1.0/lib/libmain.a(mem_manager.o)
 .irom0.literal
                0x0000000000000000        0x0 /home/cnlohr/esp8266/esp_iot_sdk_v1.1.0/lib/libmain.a(mem_manager.o)
 .data          0x0000000000000000        0x0 /home/cnlohr/esp8266/esp_iot_sdk_v1.1.0/lib/libmain.a(mem_manager.o)
 .xt.lit        0x0000000000000000       0x38 /home/cnlohr/esp8266/esp_iot_sdk_v1.1.0/lib/libmain.a(mem_manager.o)
 .xt.prop       0x0000000000000000      0x258 /home/cnlohr/esp8266/esp_iot_sdk_v1.1.0/lib/libmain.a(mem_manager.o)
 .literal       0x0000000000000000        0x0 /home/cnlohr/esp8266/esp_iot_sdk_v1.1.0/lib/libmain.a(spi_flash.o)
 .data          0x0000000000000000        0x0 /home/cnlohr/esp8266/esp_iot_sdk_v1.1.0/lib/libmain.a(spi_flash.o)
 .bss           0x0000000000000000        0x0 /home/cnlohr/esp8266/esp_iot_sdk_v1.1.0/lib/libmain.a(spi_flash.o)
 .xt.lit        0x0000000000000000       0x30 /home/cnlohr/esp8266/esp_iot_sdk_v1.1.0/lib/libmain.a(spi_flash.o)
 .xt.prop       0x0000000000000000      0x12c /home/cnlohr/esp8266/esp_iot_sdk_v1.1.0/lib/libmain.a(spi_flash.o)
 .irom0.literal
                0x0000000000000000        0x0 /home/cnlohr/esp8266/esp_iot_sdk_v1.1.0/lib/libmain.a(spi_overlap.o)
 .text          0x0000000000000000        0x0 /home/cnlohr/esp8266/esp_iot_sdk_v1.1.0/lib/libmain.a(spi_overlap.o)
 .data          0x0000000000000000        0x0 /home/cnlohr/esp8266/esp_iot_sdk_v1.1.0/lib/libmain.a(spi_overlap.o)
 .bss           0x0000000000000000        0x0 /home/cnlohr/esp8266/esp_iot_sdk_v1.1.0/lib/libmain.a(spi_overlap.o)
 .xt.lit        0x0000000000000000       0x18 /home/cnlohr/esp8266/esp_iot_sdk_v1.1.0/lib/libmain.a(spi_overlap.o)
 .xt.prop       0x0000000000000000      0x120 /home/cnlohr/esp8266/esp_iot_sdk_v1.1.0/lib/libmain.a(spi_overlap.o)
 .irom0.literal
                0x0000000000000000        0x0 /home/cnlohr/esp8266/esp_iot_sdk_v1.1.0/lib/libmain.a(user_interface.o)
 .literal       0x0000000000000000        0x0 /home/cnlohr/esp8266/esp_iot_sdk_v1.1.0/lib/libmain.a(user_interface.o)
 .xt.lit        0x0000000000000000      0x370 /home/cnlohr/esp8266/esp_iot_sdk_v1.1.0/lib/libmain.a(user_interface.o)
 .xt.prop       0x0000000000000000     0x26ac /home/cnlohr/esp8266/esp_iot_sdk_v1.1.0/lib/libmain.a(user_interface.o)
 .text          0x0000000000000000        0x0 /home/cnlohr/esp8266/esp_iot_sdk_v1.1.0/lib/libmain.a(debug-vector.o)
 .data          0x0000000000000000        0x0 /home/cnlohr/esp8266/esp_iot_sdk_v1.1.0/lib/libmain.a(debug-vector.o)
 .bss           0x0000000000000000        0x0 /home/cnlohr/esp8266/esp_iot_sdk_v1.1.0/lib/libmain.a(debug-vector.o)
 .xt.prop       0x0000000000000000       0x18 /home/cnlohr/esp8266/esp_iot_sdk_v1.1.0/lib/libmain.a(debug-vector.o)
 .text          0x0000000000000000        0x0 /home/cnlohr/esp8266/esp_iot_sdk_v1.1.0/lib/libmain.a(double-vector.o)
 .data          0x0000000000000000        0x0 /home/cnlohr/esp8266/esp_iot_sdk_v1.1.0/lib/libmain.a(double-vector.o)
 .bss           0x0000000000000000        0x0 /home/cnlohr/esp8266/esp_iot_sdk_v1.1.0/lib/libmain.a(double-vector.o)
 .xt.prop       0x0000000000000000       0x18 /home/cnlohr/esp8266/esp_iot_sdk_v1.1.0/lib/libmain.a(double-vector.o)
 .text          0x0000000000000000        0x0 /home/cnlohr/esp8266/esp_iot_sdk_v1.1.0/lib/libmain.a(kernel-vector.o)
 .data          0x0000000000000000        0x0 /home/cnlohr/esp8266/esp_iot_sdk_v1.1.0/lib/libmain.a(kernel-vector.o)
 .bss           0x0000000000000000        0x0 /home/cnlohr/esp8266/esp_iot_sdk_v1.1.0/lib/libmain.a(kernel-vector.o)
 .xt.prop       0x0000000000000000       0x18 /home/cnlohr/esp8266/esp_iot_sdk_v1.1.0/lib/libmain.a(kernel-vector.o)
 .literal       0x0000000000000000        0x0 /home/cnlohr/esp8266/esp_iot_sdk_v1.1.0/lib/libmain.a(nmi-vector.o)
 .NMIExceptionVector.literal
                0x0000000000000000        0x0 /home/cnlohr/esp8266/esp_iot_sdk_v1.1.0/lib/libmain.a(nmi-vector.o)
 .xt.lit        0x0000000000000000       0x10 /home/cnlohr/esp8266/esp_iot_sdk_v1.1.0/lib/libmain.a(nmi-vector.o)
 .xt.prop       0x0000000000000000       0x3c /home/cnlohr/esp8266/esp_iot_sdk_v1.1.0/lib/libmain.a(nmi-vector.o)
 .literal       0x0000000000000000        0x0 /home/cnlohr/esp8266/esp_iot_sdk_v1.1.0/lib/libmain.a(user-vector.o)
 .UserExceptionVector.literal
                0x0000000000000000        0x0 /home/cnlohr/esp8266/esp_iot_sdk_v1.1.0/lib/libmain.a(user-vector.o)
 .data          0x0000000000000000        0x0 /home/cnlohr/esp8266/esp_iot_sdk_v1.1.0/lib/libmain.a(user-vector.o)
 .bss           0x0000000000000000        0x0 /home/cnlohr/esp8266/esp_iot_sdk_v1.1.0/lib/libmain.a(user-vector.o)
 .xt.lit        0x0000000000000000       0x10 /home/cnlohr/esp8266/esp_iot_sdk_v1.1.0/lib/libmain.a(user-vector.o)
 .xt.prop       0x0000000000000000       0x3c /home/cnlohr/esp8266/esp_iot_sdk_v1.1.0/lib/libmain.a(user-vector.o)
 .UserEnter.literal
                0x0000000000000000        0x0 /home/cnlohr/esp8266/esp_iot_sdk_v1.1.0/lib/libmain.a(vector.o)
 .text          0x0000000000000000        0x0 /home/cnlohr/esp8266/esp_iot_sdk_v1.1.0/lib/libmain.a(vector.o)
 .data          0x0000000000000000        0x0 /home/cnlohr/esp8266/esp_iot_sdk_v1.1.0/lib/libmain.a(vector.o)
 .bss           0x0000000000000000        0x0 /home/cnlohr/esp8266/esp_iot_sdk_v1.1.0/lib/libmain.a(vector.o)
 .xt.lit        0x0000000000000000        0x8 /home/cnlohr/esp8266/esp_iot_sdk_v1.1.0/lib/libmain.a(vector.o)
 .xt.prop       0x0000000000000000       0x18 /home/cnlohr/esp8266/esp_iot_sdk_v1.1.0/lib/libmain.a(vector.o)
 .literal       0x0000000000000000        0x0 /home/cnlohr/esp8266/esp_iot_sdk_v1.1.0/lib/libmain.a(app_main.o)
 .irom0.literal
                0x0000000000000000        0x0 /home/cnlohr/esp8266/esp_iot_sdk_v1.1.0/lib/libmain.a(app_main.o)
 .xt.lit        0x0000000000000000       0x88 /home/cnlohr/esp8266/esp_iot_sdk_v1.1.0/lib/libmain.a(app_main.o)
 .xt.prop       0x0000000000000000      0x75c /home/cnlohr/esp8266/esp_iot_sdk_v1.1.0/lib/libmain.a(app_main.o)
 .irom0.literal
                0x0000000000000000        0x0 /home/cnlohr/esp8266/esp_iot_sdk_v1.1.0/lib/libmain.a(eagle_lwip_if.o)
 .text          0x0000000000000000        0x0 /home/cnlohr/esp8266/esp_iot_sdk_v1.1.0/lib/libmain.a(eagle_lwip_if.o)
 .data          0x0000000000000000        0x0 /home/cnlohr/esp8266/esp_iot_sdk_v1.1.0/lib/libmain.a(eagle_lwip_if.o)
 .xt.lit        0x0000000000000000       0x28 /home/cnlohr/esp8266/esp_iot_sdk_v1.1.0/lib/libmain.a(eagle_lwip_if.o)
 .xt.prop       0x0000000000000000      0x21c /home/cnlohr/esp8266/esp_iot_sdk_v1.1.0/lib/libmain.a(eagle_lwip_if.o)
 .irom0.literal
                0x0000000000000000        0x0 /home/cnlohr/esp8266/esp_iot_sdk_v1.1.0/lib/libnet80211.a(ieee80211.o)
 .text          0x0000000000000000        0x0 /home/cnlohr/esp8266/esp_iot_sdk_v1.1.0/lib/libnet80211.a(ieee80211.o)
 .data          0x0000000000000000        0x0 /home/cnlohr/esp8266/esp_iot_sdk_v1.1.0/lib/libnet80211.a(ieee80211.o)
 .rodata        0x0000000000000000        0x8 /home/cnlohr/esp8266/esp_iot_sdk_v1.1.0/lib/libnet80211.a(ieee80211.o)
 .xt.lit        0x0000000000000000       0x30 /home/cnlohr/esp8266/esp_iot_sdk_v1.1.0/lib/libnet80211.a(ieee80211.o)
 .xt.prop       0x0000000000000000      0x378 /home/cnlohr/esp8266/esp_iot_sdk_v1.1.0/lib/libnet80211.a(ieee80211.o)
 .irom0.literal
                0x0000000000000000        0x0 /home/cnlohr/esp8266/esp_iot_sdk_v1.1.0/lib/libnet80211.a(ieee80211_crypto.o)
 .text          0x0000000000000000        0x0 /home/cnlohr/esp8266/esp_iot_sdk_v1.1.0/lib/libnet80211.a(ieee80211_crypto.o)
 .data          0x0000000000000000        0x0 /home/cnlohr/esp8266/esp_iot_sdk_v1.1.0/lib/libnet80211.a(ieee80211_crypto.o)
 .bss           0x0000000000000000        0x0 /home/cnlohr/esp8266/esp_iot_sdk_v1.1.0/lib/libnet80211.a(ieee80211_crypto.o)
 .xt.lit        0x0000000000000000       0x10 /home/cnlohr/esp8266/esp_iot_sdk_v1.1.0/lib/libnet80211.a(ieee80211_crypto.o)
 .xt.prop       0x0000000000000000      0x138 /home/cnlohr/esp8266/esp_iot_sdk_v1.1.0/lib/libnet80211.a(ieee80211_crypto.o)
 .literal       0x0000000000000000        0x0 /home/cnlohr/esp8266/esp_iot_sdk_v1.1.0/lib/libnet80211.a(ieee80211_hostap.o)
 .irom0.literal
                0x0000000000000000        0x0 /home/cnlohr/esp8266/esp_iot_sdk_v1.1.0/lib/libnet80211.a(ieee80211_hostap.o)
 .data          0x0000000000000000        0x0 /home/cnlohr/esp8266/esp_iot_sdk_v1.1.0/lib/libnet80211.a(ieee80211_hostap.o)
 .xt.lit        0x0000000000000000       0x70 /home/cnlohr/esp8266/esp_iot_sdk_v1.1.0/lib/libnet80211.a(ieee80211_hostap.o)
 .xt.prop       0x0000000000000000      0x924 /home/cnlohr/esp8266/esp_iot_sdk_v1.1.0/lib/libnet80211.a(ieee80211_hostap.o)
 .irom0.literal
                0x0000000000000000        0x0 /home/cnlohr/esp8266/esp_iot_sdk_v1.1.0/lib/libnet80211.a(ieee80211_ht.o)
 .text          0x0000000000000000        0x0 /home/cnlohr/esp8266/esp_iot_sdk_v1.1.0/lib/libnet80211.a(ieee80211_ht.o)
 .data          0x0000000000000000        0x0 /home/cnlohr/esp8266/esp_iot_sdk_v1.1.0/lib/libnet80211.a(ieee80211_ht.o)
 .bss           0x0000000000000000        0x0 /home/cnlohr/esp8266/esp_iot_sdk_v1.1.0/lib/libnet80211.a(ieee80211_ht.o)
 .xt.lit        0x0000000000000000       0x68 /home/cnlohr/esp8266/esp_iot_sdk_v1.1.0/lib/libnet80211.a(ieee80211_ht.o)
 .xt.prop       0x0000000000000000      0x618 /home/cnlohr/esp8266/esp_iot_sdk_v1.1.0/lib/libnet80211.a(ieee80211_ht.o)
 .irom0.literal
                0x0000000000000000        0x0 /home/cnlohr/esp8266/esp_iot_sdk_v1.1.0/lib/libnet80211.a(ieee80211_input.o)
 .text          0x0000000000000000        0x0 /home/cnlohr/esp8266/esp_iot_sdk_v1.1.0/lib/libnet80211.a(ieee80211_input.o)
 .data          0x0000000000000000        0x0 /home/cnlohr/esp8266/esp_iot_sdk_v1.1.0/lib/libnet80211.a(ieee80211_input.o)
 .bss           0x0000000000000000        0x0 /home/cnlohr/esp8266/esp_iot_sdk_v1.1.0/lib/libnet80211.a(ieee80211_input.o)
 .xt.lit        0x0000000000000000       0x58 /home/cnlohr/esp8266/esp_iot_sdk_v1.1.0/lib/libnet80211.a(ieee80211_input.o)
 .xt.prop       0x0000000000000000      0x78c /home/cnlohr/esp8266/esp_iot_sdk_v1.1.0/lib/libnet80211.a(ieee80211_input.o)
 .irom0.literal
                0x0000000000000000        0x0 /home/cnlohr/esp8266/esp_iot_sdk_v1.1.0/lib/libnet80211.a(ieee80211_output.o)
 .text          0x0000000000000000        0x0 /home/cnlohr/esp8266/esp_iot_sdk_v1.1.0/lib/libnet80211.a(ieee80211_output.o)
 .data          0x0000000000000000        0x0 /home/cnlohr/esp8266/esp_iot_sdk_v1.1.0/lib/libnet80211.a(ieee80211_output.o)
 .bss           0x0000000000000000        0x0 /home/cnlohr/esp8266/esp_iot_sdk_v1.1.0/lib/libnet80211.a(ieee80211_output.o)
 .xt.lit        0x0000000000000000       0x80 /home/cnlohr/esp8266/esp_iot_sdk_v1.1.0/lib/libnet80211.a(ieee80211_output.o)
 .xt.prop       0x0000000000000000      0xab0 /home/cnlohr/esp8266/esp_iot_sdk_v1.1.0/lib/libnet80211.a(ieee80211_output.o)
 .irom0.literal
                0x0000000000000000        0x0 /home/cnlohr/esp8266/esp_iot_sdk_v1.1.0/lib/libnet80211.a(ieee80211_phy.o)
 .text          0x0000000000000000        0x0 /home/cnlohr/esp8266/esp_iot_sdk_v1.1.0/lib/libnet80211.a(ieee80211_phy.o)
 .bss           0x0000000000000000        0x0 /home/cnlohr/esp8266/esp_iot_sdk_v1.1.0/lib/libnet80211.a(ieee80211_phy.o)
 .xt.lit        0x0000000000000000       0x38 /home/cnlohr/esp8266/esp_iot_sdk_v1.1.0/lib/libnet80211.a(ieee80211_phy.o)
 .xt.prop       0x0000000000000000      0x24c /home/cnlohr/esp8266/esp_iot_sdk_v1.1.0/lib/libnet80211.a(ieee80211_phy.o)
 .irom0.literal
                0x0000000000000000        0x0 /home/cnlohr/esp8266/esp_iot_sdk_v1.1.0/lib/libnet80211.a(ieee80211_power.o)
 .text          0x0000000000000000        0x0 /home/cnlohr/esp8266/esp_iot_sdk_v1.1.0/lib/libnet80211.a(ieee80211_power.o)
 .data          0x0000000000000000        0x0 /home/cnlohr/esp8266/esp_iot_sdk_v1.1.0/lib/libnet80211.a(ieee80211_power.o)
 .bss           0x0000000000000000        0x0 /home/cnlohr/esp8266/esp_iot_sdk_v1.1.0/lib/libnet80211.a(ieee80211_power.o)
 .xt.lit        0x0000000000000000       0x20 /home/cnlohr/esp8266/esp_iot_sdk_v1.1.0/lib/libnet80211.a(ieee80211_power.o)
 .xt.prop       0x0000000000000000      0x1a4 /home/cnlohr/esp8266/esp_iot_sdk_v1.1.0/lib/libnet80211.a(ieee80211_power.o)
 .irom0.literal
                0x0000000000000000        0x0 /home/cnlohr/esp8266/esp_iot_sdk_v1.1.0/lib/libnet80211.a(ieee80211_proto.o)
 .text          0x0000000000000000        0x0 /home/cnlohr/esp8266/esp_iot_sdk_v1.1.0/lib/libnet80211.a(ieee80211_proto.o)
 .bss           0x0000000000000000        0x0 /home/cnlohr/esp8266/esp_iot_sdk_v1.1.0/lib/libnet80211.a(ieee80211_proto.o)
 .xt.lit        0x0000000000000000       0x20 /home/cnlohr/esp8266/esp_iot_sdk_v1.1.0/lib/libnet80211.a(ieee80211_proto.o)
 .xt.prop       0x0000000000000000      0x204 /home/cnlohr/esp8266/esp_iot_sdk_v1.1.0/lib/libnet80211.a(ieee80211_proto.o)
 .irom0.literal
                0x0000000000000000        0x0 /home/cnlohr/esp8266/esp_iot_sdk_v1.1.0/lib/libnet80211.a(ieee80211_scan.o)
 .literal       0x0000000000000000        0x0 /home/cnlohr/esp8266/esp_iot_sdk_v1.1.0/lib/libnet80211.a(ieee80211_scan.o)
 .text          0x0000000000000000       0x39 /home/cnlohr/esp8266/esp_iot_sdk_v1.1.0/lib/libnet80211.a(ieee80211_scan.o)
 .data          0x0000000000000000        0x0 /home/cnlohr/esp8266/esp_iot_sdk_v1.1.0/lib/libnet80211.a(ieee80211_scan.o)
 .xt.lit        0x0000000000000000       0xd8 /home/cnlohr/esp8266/esp_iot_sdk_v1.1.0/lib/libnet80211.a(ieee80211_scan.o)
 .xt.prop       0x0000000000000000      0xa44 /home/cnlohr/esp8266/esp_iot_sdk_v1.1.0/lib/libnet80211.a(ieee80211_scan.o)
 .irom0.literal
                0x0000000000000000        0x0 /home/cnlohr/esp8266/esp_iot_sdk_v1.1.0/lib/libnet80211.a(ieee80211_sta.o)
 .text          0x0000000000000000        0x0 /home/cnlohr/esp8266/esp_iot_sdk_v1.1.0/lib/libnet80211.a(ieee80211_sta.o)
 .data          0x0000000000000000        0x0 /home/cnlohr/esp8266/esp_iot_sdk_v1.1.0/lib/libnet80211.a(ieee80211_sta.o)
 .bss           0x0000000000000000        0x0 /home/cnlohr/esp8266/esp_iot_sdk_v1.1.0/lib/libnet80211.a(ieee80211_sta.o)
 .xt.lit        0x0000000000000000       0x50 /home/cnlohr/esp8266/esp_iot_sdk_v1.1.0/lib/libnet80211.a(ieee80211_sta.o)
 .xt.prop       0x0000000000000000      0x84c /home/cnlohr/esp8266/esp_iot_sdk_v1.1.0/lib/libnet80211.a(ieee80211_sta.o)
 .irom0.literal
                0x0000000000000000        0x0 /home/cnlohr/esp8266/esp_iot_sdk_v1.1.0/lib/libnet80211.a(wl_chm.o)
 .literal       0x0000000000000000        0x0 /home/cnlohr/esp8266/esp_iot_sdk_v1.1.0/lib/libnet80211.a(wl_chm.o)
 .data          0x0000000000000000        0x0 /home/cnlohr/esp8266/esp_iot_sdk_v1.1.0/lib/libnet80211.a(wl_chm.o)
 .xt.lit        0x0000000000000000       0x60 /home/cnlohr/esp8266/esp_iot_sdk_v1.1.0/lib/libnet80211.a(wl_chm.o)
 .xt.prop       0x0000000000000000      0x2ac /home/cnlohr/esp8266/esp_iot_sdk_v1.1.0/lib/libnet80211.a(wl_chm.o)
 .irom0.literal
                0x0000000000000000        0x0 /home/cnlohr/esp8266/esp_iot_sdk_v1.1.0/lib/libnet80211.a(wl_cnx.o)
 .text          0x0000000000000000        0x0 /home/cnlohr/esp8266/esp_iot_sdk_v1.1.0/lib/libnet80211.a(wl_cnx.o)
 .data          0x0000000000000000        0x0 /home/cnlohr/esp8266/esp_iot_sdk_v1.1.0/lib/libnet80211.a(wl_cnx.o)
 .xt.lit        0x0000000000000000       0xf8 /home/cnlohr/esp8266/esp_iot_sdk_v1.1.0/lib/libnet80211.a(wl_cnx.o)
 .xt.prop       0x0000000000000000      0xd8c /home/cnlohr/esp8266/esp_iot_sdk_v1.1.0/lib/libnet80211.a(wl_cnx.o)
 .irom0.literal
                0x0000000000000000        0x0 /home/cnlohr/esp8266/esp_iot_sdk_v1.1.0/lib/libnet80211.a(ieee80211_action.o)
 .text          0x0000000000000000        0x0 /home/cnlohr/esp8266/esp_iot_sdk_v1.1.0/lib/libnet80211.a(ieee80211_action.o)
 .bss           0x0000000000000000        0x0 /home/cnlohr/esp8266/esp_iot_sdk_v1.1.0/lib/libnet80211.a(ieee80211_action.o)
 .xt.lit        0x0000000000000000       0x30 /home/cnlohr/esp8266/esp_iot_sdk_v1.1.0/lib/libnet80211.a(ieee80211_action.o)
 .xt.prop       0x0000000000000000      0x2f4 /home/cnlohr/esp8266/esp_iot_sdk_v1.1.0/lib/libnet80211.a(ieee80211_action.o)
 .irom0.literal
                0x0000000000000000        0x0 /home/cnlohr/esp8266/esp_iot_sdk_v1.1.0/lib/libnet80211.a(ieee80211_ets.o)
 .text          0x0000000000000000        0x0 /home/cnlohr/esp8266/esp_iot_sdk_v1.1.0/lib/libnet80211.a(ieee80211_ets.o)
 .data          0x0000000000000000        0x0 /home/cnlohr/esp8266/esp_iot_sdk_v1.1.0/lib/libnet80211.a(ieee80211_ets.o)
 .bss           0x0000000000000000        0x0 /home/cnlohr/esp8266/esp_iot_sdk_v1.1.0/lib/libnet80211.a(ieee80211_ets.o)
 .xt.lit        0x0000000000000000        0x8 /home/cnlohr/esp8266/esp_iot_sdk_v1.1.0/lib/libnet80211.a(ieee80211_ets.o)
 .xt.prop       0x0000000000000000       0x54 /home/cnlohr/esp8266/esp_iot_sdk_v1.1.0/lib/libnet80211.a(ieee80211_ets.o)
 .irom0.literal
                0x0000000000000000        0x0 /home/cnlohr/esp8266/esp_iot_sdk_v1.1.0/lib/liblwip.a(dhcp.o)
 .text          0x0000000000000000        0x0 /home/cnlohr/esp8266/esp_iot_sdk_v1.1.0/lib/liblwip.a(dhcp.o)
 .xt.lit        0x0000000000000000       0xc0 /home/cnlohr/esp8266/esp_iot_sdk_v1.1.0/lib/liblwip.a(dhcp.o)
 .xt.prop       0x0000000000000000      0xc9c /home/cnlohr/esp8266/esp_iot_sdk_v1.1.0/lib/liblwip.a(dhcp.o)
 .irom0.literal
                0x0000000000000000        0x0 /home/cnlohr/esp8266/esp_iot_sdk_v1.1.0/lib/liblwip.a(dhcpserver.o)
 .text          0x0000000000000000        0x0 /home/cnlohr/esp8266/esp_iot_sdk_v1.1.0/lib/liblwip.a(dhcpserver.o)
 .xt.lit        0x0000000000000000       0x78 /home/cnlohr/esp8266/esp_iot_sdk_v1.1.0/lib/liblwip.a(dhcpserver.o)
 .xt.prop       0x0000000000000000      0x720 /home/cnlohr/esp8266/esp_iot_sdk_v1.1.0/lib/liblwip.a(dhcpserver.o)
 .irom0.literal
                0x0000000000000000        0x0 /home/cnlohr/esp8266/esp_iot_sdk_v1.1.0/lib/liblwip.a(dns.o)
 .literal       0x0000000000000000        0x0 /home/cnlohr/esp8266/esp_iot_sdk_v1.1.0/lib/liblwip.a(dns.o)
 .data          0x0000000000000000        0x0 /home/cnlohr/esp8266/esp_iot_sdk_v1.1.0/lib/liblwip.a(dns.o)
 .xt.lit        0x0000000000000000       0x48 /home/cnlohr/esp8266/esp_iot_sdk_v1.1.0/lib/liblwip.a(dns.o)
 .xt.prop       0x0000000000000000      0x444 /home/cnlohr/esp8266/esp_iot_sdk_v1.1.0/lib/liblwip.a(dns.o)
 .irom0.literal
                0x0000000000000000        0x0 /home/cnlohr/esp8266/esp_iot_sdk_v1.1.0/lib/liblwip.a(espconn.o)
 .literal       0x0000000000000000        0x0 /home/cnlohr/esp8266/esp_iot_sdk_v1.1.0/lib/liblwip.a(espconn.o)
 .text          0x0000000000000000       0x46 /home/cnlohr/esp8266/esp_iot_sdk_v1.1.0/lib/liblwip.a(espconn.o)
 .data          0x0000000000000000        0x0 /home/cnlohr/esp8266/esp_iot_sdk_v1.1.0/lib/liblwip.a(espconn.o)
 .xt.lit        0x0000000000000000       0xb0 /home/cnlohr/esp8266/esp_iot_sdk_v1.1.0/lib/liblwip.a(espconn.o)
 .xt.prop       0x0000000000000000      0xc78 /home/cnlohr/esp8266/esp_iot_sdk_v1.1.0/lib/liblwip.a(espconn.o)
 .irom0.literal
                0x0000000000000000        0x0 /home/cnlohr/esp8266/esp_iot_sdk_v1.1.0/lib/liblwip.a(espconn_tcp.o)
 .text          0x0000000000000000        0x0 /home/cnlohr/esp8266/esp_iot_sdk_v1.1.0/lib/liblwip.a(espconn_tcp.o)
 .data          0x0000000000000000        0x0 /home/cnlohr/esp8266/esp_iot_sdk_v1.1.0/lib/liblwip.a(espconn_tcp.o)
 .xt.lit        0x0000000000000000       0xc0 /home/cnlohr/esp8266/esp_iot_sdk_v1.1.0/lib/liblwip.a(espconn_tcp.o)
 .xt.prop       0x0000000000000000      0xc24 /home/cnlohr/esp8266/esp_iot_sdk_v1.1.0/lib/liblwip.a(espconn_tcp.o)
 .irom0.literal
                0x0000000000000000        0x0 /home/cnlohr/esp8266/esp_iot_sdk_v1.1.0/lib/liblwip.a(espconn_udp.o)
 .text          0x0000000000000000        0x0 /home/cnlohr/esp8266/esp_iot_sdk_v1.1.0/lib/liblwip.a(espconn_udp.o)
 .data          0x0000000000000000        0x0 /home/cnlohr/esp8266/esp_iot_sdk_v1.1.0/lib/liblwip.a(espconn_udp.o)
 .bss           0x0000000000000000        0x0 /home/cnlohr/esp8266/esp_iot_sdk_v1.1.0/lib/liblwip.a(espconn_udp.o)
 .xt.lit        0x0000000000000000       0x88 /home/cnlohr/esp8266/esp_iot_sdk_v1.1.0/lib/liblwip.a(espconn_udp.o)
 .xt.prop       0x0000000000000000      0x39c /home/cnlohr/esp8266/esp_iot_sdk_v1.1.0/lib/liblwip.a(espconn_udp.o)
 .literal       0x0000000000000000        0x0 /home/cnlohr/esp8266/esp_iot_sdk_v1.1.0/lib/liblwip.a(etharp.o)
 .irom0.literal
                0x0000000000000000        0x0 /home/cnlohr/esp8266/esp_iot_sdk_v1.1.0/lib/liblwip.a(etharp.o)
 .data          0x0000000000000000        0x0 /home/cnlohr/esp8266/esp_iot_sdk_v1.1.0/lib/liblwip.a(etharp.o)
 .xt.lit        0x0000000000000000       0x78 /home/cnlohr/esp8266/esp_iot_sdk_v1.1.0/lib/liblwip.a(etharp.o)
 .xt.prop       0x0000000000000000      0x6a8 /home/cnlohr/esp8266/esp_iot_sdk_v1.1.0/lib/liblwip.a(etharp.o)
 .irom0.literal
                0x0000000000000000        0x0 /home/cnlohr/esp8266/esp_iot_sdk_v1.1.0/lib/liblwip.a(igmp.o)
 .text          0x0000000000000000        0x0 /home/cnlohr/esp8266/esp_iot_sdk_v1.1.0/lib/liblwip.a(igmp.o)
 .data          0x0000000000000000        0x0 /home/cnlohr/esp8266/esp_iot_sdk_v1.1.0/lib/liblwip.a(igmp.o)
 .xt.lit        0x0000000000000000       0x70 /home/cnlohr/esp8266/esp_iot_sdk_v1.1.0/lib/liblwip.a(igmp.o)
 .xt.prop       0x0000000000000000      0x5b8 /home/cnlohr/esp8266/esp_iot_sdk_v1.1.0/lib/liblwip.a(igmp.o)
 .irom0.literal
                0x0000000000000000        0x0 /home/cnlohr/esp8266/esp_iot_sdk_v1.1.0/lib/liblwip.a(inet_chksum.o)
 .text          0x0000000000000000        0x0 /home/cnlohr/esp8266/esp_iot_sdk_v1.1.0/lib/liblwip.a(inet_chksum.o)
 .data          0x0000000000000000        0x0 /home/cnlohr/esp8266/esp_iot_sdk_v1.1.0/lib/liblwip.a(inet_chksum.o)
 .bss           0x0000000000000000        0x0 /home/cnlohr/esp8266/esp_iot_sdk_v1.1.0/lib/liblwip.a(inet_chksum.o)
 .xt.prop       0x0000000000000000      0x174 /home/cnlohr/esp8266/esp_iot_sdk_v1.1.0/lib/liblwip.a(inet_chksum.o)
 .irom0.literal
                0x0000000000000000        0x0 /home/cnlohr/esp8266/esp_iot_sdk_v1.1.0/lib/liblwip.a(init.o)
 .text          0x0000000000000000        0x0 /home/cnlohr/esp8266/esp_iot_sdk_v1.1.0/lib/liblwip.a(init.o)
 .data          0x0000000000000000        0x0 /home/cnlohr/esp8266/esp_iot_sdk_v1.1.0/lib/liblwip.a(init.o)
 .bss           0x0000000000000000        0x0 /home/cnlohr/esp8266/esp_iot_sdk_v1.1.0/lib/liblwip.a(init.o)
 .xt.lit        0x0000000000000000        0x8 /home/cnlohr/esp8266/esp_iot_sdk_v1.1.0/lib/liblwip.a(init.o)
 .xt.prop       0x0000000000000000       0x24 /home/cnlohr/esp8266/esp_iot_sdk_v1.1.0/lib/liblwip.a(init.o)
 .irom0.literal
                0x0000000000000000        0x0 /home/cnlohr/esp8266/esp_iot_sdk_v1.1.0/lib/liblwip.a(ip_addr.o)
 .text          0x0000000000000000        0x0 /home/cnlohr/esp8266/esp_iot_sdk_v1.1.0/lib/liblwip.a(ip_addr.o)
 .data          0x0000000000000000        0x0 /home/cnlohr/esp8266/esp_iot_sdk_v1.1.0/lib/liblwip.a(ip_addr.o)
 .xt.lit        0x0000000000000000       0x20 /home/cnlohr/esp8266/esp_iot_sdk_v1.1.0/lib/liblwip.a(ip_addr.o)
 .xt.prop       0x0000000000000000      0x2dc /home/cnlohr/esp8266/esp_iot_sdk_v1.1.0/lib/liblwip.a(ip_addr.o)
 .irom0.literal
                0x0000000000000000        0x0 /home/cnlohr/esp8266/esp_iot_sdk_v1.1.0/lib/liblwip.a(ip.o)
 .text          0x0000000000000000        0x0 /home/cnlohr/esp8266/esp_iot_sdk_v1.1.0/lib/liblwip.a(ip.o)
 .data          0x0000000000000000        0x0 /home/cnlohr/esp8266/esp_iot_sdk_v1.1.0/lib/liblwip.a(ip.o)
 .xt.lit        0x0000000000000000       0x20 /home/cnlohr/esp8266/esp_iot_sdk_v1.1.0/lib/liblwip.a(ip.o)
 .xt.prop       0x0000000000000000      0x414 /home/cnlohr/esp8266/esp_iot_sdk_v1.1.0/lib/liblwip.a(ip.o)
 .literal       0x0000000000000000        0x0 /home/cnlohr/esp8266/esp_iot_sdk_v1.1.0/lib/liblwip.a(mdns.o)
 .irom0.literal
                0x0000000000000000        0x0 /home/cnlohr/esp8266/esp_iot_sdk_v1.1.0/lib/liblwip.a(mdns.o)
 .data          0x0000000000000000        0x0 /home/cnlohr/esp8266/esp_iot_sdk_v1.1.0/lib/liblwip.a(mdns.o)
 .xt.lit        0x0000000000000000       0x80 /home/cnlohr/esp8266/esp_iot_sdk_v1.1.0/lib/liblwip.a(mdns.o)
 .xt.prop       0x0000000000000000      0x87c /home/cnlohr/esp8266/esp_iot_sdk_v1.1.0/lib/liblwip.a(mdns.o)
 .text          0x0000000000000000        0x0 /home/cnlohr/esp8266/esp_iot_sdk_v1.1.0/lib/liblwip.a(memp.o)
 .data          0x0000000000000000        0x2 /home/cnlohr/esp8266/esp_iot_sdk_v1.1.0/lib/liblwip.a(memp.o)
 .bss           0x0000000000000000        0x0 /home/cnlohr/esp8266/esp_iot_sdk_v1.1.0/lib/liblwip.a(memp.o)
 .xt.prop       0x0000000000000000       0x18 /home/cnlohr/esp8266/esp_iot_sdk_v1.1.0/lib/liblwip.a(memp.o)
 .irom0.literal
                0x0000000000000000        0x0 /home/cnlohr/esp8266/esp_iot_sdk_v1.1.0/lib/liblwip.a(netif.o)
 .text          0x0000000000000000        0x0 /home/cnlohr/esp8266/esp_iot_sdk_v1.1.0/lib/liblwip.a(netif.o)
 .data          0x0000000000000000        0x0 /home/cnlohr/esp8266/esp_iot_sdk_v1.1.0/lib/liblwip.a(netif.o)
 .xt.lit        0x0000000000000000       0x40 /home/cnlohr/esp8266/esp_iot_sdk_v1.1.0/lib/liblwip.a(netif.o)
 .xt.prop       0x0000000000000000      0x354 /home/cnlohr/esp8266/esp_iot_sdk_v1.1.0/lib/liblwip.a(netif.o)
 .irom0.literal
                0x0000000000000000        0x0 /home/cnlohr/esp8266/esp_iot_sdk_v1.1.0/lib/liblwip.a(pbuf.o)
 .text          0x0000000000000000        0x0 /home/cnlohr/esp8266/esp_iot_sdk_v1.1.0/lib/liblwip.a(pbuf.o)
 .data          0x0000000000000000        0x0 /home/cnlohr/esp8266/esp_iot_sdk_v1.1.0/lib/liblwip.a(pbuf.o)
 .bss           0x0000000000000000        0x0 /home/cnlohr/esp8266/esp_iot_sdk_v1.1.0/lib/liblwip.a(pbuf.o)
 .xt.lit        0x0000000000000000       0x40 /home/cnlohr/esp8266/esp_iot_sdk_v1.1.0/lib/liblwip.a(pbuf.o)
 .xt.prop       0x0000000000000000      0x690 /home/cnlohr/esp8266/esp_iot_sdk_v1.1.0/lib/liblwip.a(pbuf.o)
 .irom0.literal
                0x0000000000000000        0x0 /home/cnlohr/esp8266/esp_iot_sdk_v1.1.0/lib/liblwip.a(raw.o)
 .text          0x0000000000000000        0x0 /home/cnlohr/esp8266/esp_iot_sdk_v1.1.0/lib/liblwip.a(raw.o)
 .data          0x0000000000000000        0x0 /home/cnlohr/esp8266/esp_iot_sdk_v1.1.0/lib/liblwip.a(raw.o)
 .xt.lit        0x0000000000000000       0x20 /home/cnlohr/esp8266/esp_iot_sdk_v1.1.0/lib/liblwip.a(raw.o)
 .xt.prop       0x0000000000000000      0x27c /home/cnlohr/esp8266/esp_iot_sdk_v1.1.0/lib/liblwip.a(raw.o)
 .irom0.literal
                0x0000000000000000        0x0 /home/cnlohr/esp8266/esp_iot_sdk_v1.1.0/lib/liblwip.a(tcp_in.o)
 .text          0x0000000000000000        0x0 /home/cnlohr/esp8266/esp_iot_sdk_v1.1.0/lib/liblwip.a(tcp_in.o)
 .data          0x0000000000000000        0x0 /home/cnlohr/esp8266/esp_iot_sdk_v1.1.0/lib/liblwip.a(tcp_in.o)
 .xt.lit        0x0000000000000000       0x30 /home/cnlohr/esp8266/esp_iot_sdk_v1.1.0/lib/liblwip.a(tcp_in.o)
 .xt.prop       0x0000000000000000      0xa20 /home/cnlohr/esp8266/esp_iot_sdk_v1.1.0/lib/liblwip.a(tcp_in.o)
 .irom0.literal
                0x0000000000000000        0x0 /home/cnlohr/esp8266/esp_iot_sdk_v1.1.0/lib/liblwip.a(tcp.o)
 .literal       0x0000000000000000        0x0 /home/cnlohr/esp8266/esp_iot_sdk_v1.1.0/lib/liblwip.a(tcp.o)
 .xt.lit        0x0000000000000000       0xb0 /home/cnlohr/esp8266/esp_iot_sdk_v1.1.0/lib/liblwip.a(tcp.o)
 .xt.prop       0x0000000000000000      0xc6c /home/cnlohr/esp8266/esp_iot_sdk_v1.1.0/lib/liblwip.a(tcp.o)
 .irom0.literal
                0x0000000000000000        0x0 /home/cnlohr/esp8266/esp_iot_sdk_v1.1.0/lib/liblwip.a(tcp_out.o)
 .literal       0x0000000000000000        0x0 /home/cnlohr/esp8266/esp_iot_sdk_v1.1.0/lib/liblwip.a(tcp_out.o)
 .data          0x0000000000000000        0x0 /home/cnlohr/esp8266/esp_iot_sdk_v1.1.0/lib/liblwip.a(tcp_out.o)
 .bss           0x0000000000000000        0x0 /home/cnlohr/esp8266/esp_iot_sdk_v1.1.0/lib/liblwip.a(tcp_out.o)
 .xt.lit        0x0000000000000000       0x70 /home/cnlohr/esp8266/esp_iot_sdk_v1.1.0/lib/liblwip.a(tcp_out.o)
 .xt.prop       0x0000000000000000      0x7a4 /home/cnlohr/esp8266/esp_iot_sdk_v1.1.0/lib/liblwip.a(tcp_out.o)
 .irom0.literal
                0x0000000000000000        0x0 /home/cnlohr/esp8266/esp_iot_sdk_v1.1.0/lib/liblwip.a(timers.o)
 .literal       0x0000000000000000        0x0 /home/cnlohr/esp8266/esp_iot_sdk_v1.1.0/lib/liblwip.a(timers.o)
 .data          0x0000000000000000        0x0 /home/cnlohr/esp8266/esp_iot_sdk_v1.1.0/lib/liblwip.a(timers.o)
 .xt.lit        0x0000000000000000       0x68 /home/cnlohr/esp8266/esp_iot_sdk_v1.1.0/lib/liblwip.a(timers.o)
 .xt.prop       0x0000000000000000      0x354 /home/cnlohr/esp8266/esp_iot_sdk_v1.1.0/lib/liblwip.a(timers.o)
 .irom0.literal
                0x0000000000000000        0x0 /home/cnlohr/esp8266/esp_iot_sdk_v1.1.0/lib/liblwip.a(udp.o)
 .text          0x0000000000000000        0x0 /home/cnlohr/esp8266/esp_iot_sdk_v1.1.0/lib/liblwip.a(udp.o)
 .data          0x0000000000000000        0x0 /home/cnlohr/esp8266/esp_iot_sdk_v1.1.0/lib/liblwip.a(udp.o)
 .xt.lit        0x0000000000000000       0x38 /home/cnlohr/esp8266/esp_iot_sdk_v1.1.0/lib/liblwip.a(udp.o)
 .xt.prop       0x0000000000000000      0x558 /home/cnlohr/esp8266/esp_iot_sdk_v1.1.0/lib/liblwip.a(udp.o)
 .irom0.literal
                0x0000000000000000        0x0 /home/cnlohr/esp8266/esp_iot_sdk_v1.1.0/lib/liblwip.a(icmp.o)
 .text          0x0000000000000000        0x0 /home/cnlohr/esp8266/esp_iot_sdk_v1.1.0/lib/liblwip.a(icmp.o)
 .data          0x0000000000000000        0x0 /home/cnlohr/esp8266/esp_iot_sdk_v1.1.0/lib/liblwip.a(icmp.o)
 .bss           0x0000000000000000        0x0 /home/cnlohr/esp8266/esp_iot_sdk_v1.1.0/lib/liblwip.a(icmp.o)
 .xt.lit        0x0000000000000000       0x10 /home/cnlohr/esp8266/esp_iot_sdk_v1.1.0/lib/liblwip.a(icmp.o)
 .xt.prop       0x0000000000000000      0x108 /home/cnlohr/esp8266/esp_iot_sdk_v1.1.0/lib/liblwip.a(icmp.o)
 .irom0.literal
                0x0000000000000000        0x0 /home/cnlohr/esp8266/esp_iot_sdk_v1.1.0/lib/libwpa.a(ap_config.o)
 .text          0x0000000000000000        0x0 /home/cnlohr/esp8266/esp_iot_sdk_v1.1.0/lib/libwpa.a(ap_config.o)
 .data          0x0000000000000000        0x0 /home/cnlohr/esp8266/esp_iot_sdk_v1.1.0/lib/libwpa.a(ap_config.o)
 .bss           0x0000000000000000        0x0 /home/cnlohr/esp8266/esp_iot_sdk_v1.1.0/lib/libwpa.a(ap_config.o)
 .xt.lit        0x0000000000000000       0x40 /home/cnlohr/esp8266/esp_iot_sdk_v1.1.0/lib/libwpa.a(ap_config.o)
 .xt.prop       0x0000000000000000      0x2ac /home/cnlohr/esp8266/esp_iot_sdk_v1.1.0/lib/libwpa.a(ap_config.o)
 .irom0.literal
                0x0000000000000000        0x0 /home/cnlohr/esp8266/esp_iot_sdk_v1.1.0/lib/libwpa.a(common.o)
 .text          0x0000000000000000        0x0 /home/cnlohr/esp8266/esp_iot_sdk_v1.1.0/lib/libwpa.a(common.o)
 .data          0x0000000000000000        0x0 /home/cnlohr/esp8266/esp_iot_sdk_v1.1.0/lib/libwpa.a(common.o)
 .bss           0x0000000000000000        0x0 /home/cnlohr/esp8266/esp_iot_sdk_v1.1.0/lib/libwpa.a(common.o)
 .xt.lit        0x0000000000000000       0x10 /home/cnlohr/esp8266/esp_iot_sdk_v1.1.0/lib/libwpa.a(common.o)
 .xt.prop       0x0000000000000000      0x1d4 /home/cnlohr/esp8266/esp_iot_sdk_v1.1.0/lib/libwpa.a(common.o)
 .irom0.literal
                0x0000000000000000        0x0 /home/cnlohr/esp8266/esp_iot_sdk_v1.1.0/lib/libwpa.a(os_xtensa.o)
 .text          0x0000000000000000        0x0 /home/cnlohr/esp8266/esp_iot_sdk_v1.1.0/lib/libwpa.a(os_xtensa.o)
 .data          0x0000000000000000        0x0 /home/cnlohr/esp8266/esp_iot_sdk_v1.1.0/lib/libwpa.a(os_xtensa.o)
 .bss           0x0000000000000000        0x0 /home/cnlohr/esp8266/esp_iot_sdk_v1.1.0/lib/libwpa.a(os_xtensa.o)
 .xt.lit        0x0000000000000000       0x10 /home/cnlohr/esp8266/esp_iot_sdk_v1.1.0/lib/libwpa.a(os_xtensa.o)
 .xt.prop       0x0000000000000000      0x168 /home/cnlohr/esp8266/esp_iot_sdk_v1.1.0/lib/libwpa.a(os_xtensa.o)
 .literal       0x0000000000000000        0x0 /home/cnlohr/esp8266/esp_iot_sdk_v1.1.0/lib/libwpa.a(wpa_auth.o)
 .irom0.literal
                0x0000000000000000        0x0 /home/cnlohr/esp8266/esp_iot_sdk_v1.1.0/lib/libwpa.a(wpa_auth.o)
 .data          0x0000000000000000        0x0 /home/cnlohr/esp8266/esp_iot_sdk_v1.1.0/lib/libwpa.a(wpa_auth.o)
 .bss           0x0000000000000000        0x0 /home/cnlohr/esp8266/esp_iot_sdk_v1.1.0/lib/libwpa.a(wpa_auth.o)
 .rodata        0x0000000000000000       0x14 /home/cnlohr/esp8266/esp_iot_sdk_v1.1.0/lib/libwpa.a(wpa_auth.o)
 .xt.lit        0x0000000000000000      0x100 /home/cnlohr/esp8266/esp_iot_sdk_v1.1.0/lib/libwpa.a(wpa_auth.o)
 .xt.prop       0x0000000000000000     0x1578 /home/cnlohr/esp8266/esp_iot_sdk_v1.1.0/lib/libwpa.a(wpa_auth.o)
 .irom0.literal
                0x0000000000000000        0x0 /home/cnlohr/esp8266/esp_iot_sdk_v1.1.0/lib/libwpa.a(wpa_auth_ie.o)
 .text          0x0000000000000000        0x0 /home/cnlohr/esp8266/esp_iot_sdk_v1.1.0/lib/libwpa.a(wpa_auth_ie.o)
 .data          0x0000000000000000        0x0 /home/cnlohr/esp8266/esp_iot_sdk_v1.1.0/lib/libwpa.a(wpa_auth_ie.o)
 .bss           0x0000000000000000        0x0 /home/cnlohr/esp8266/esp_iot_sdk_v1.1.0/lib/libwpa.a(wpa_auth_ie.o)
 .xt.lit        0x0000000000000000       0x38 /home/cnlohr/esp8266/esp_iot_sdk_v1.1.0/lib/libwpa.a(wpa_auth_ie.o)
 .xt.prop       0x0000000000000000      0x414 /home/cnlohr/esp8266/esp_iot_sdk_v1.1.0/lib/libwpa.a(wpa_auth_ie.o)
 .irom0.literal
                0x0000000000000000        0x0 /home/cnlohr/esp8266/esp_iot_sdk_v1.1.0/lib/libwpa.a(wpa.o)
 .text          0x0000000000000000        0x0 /home/cnlohr/esp8266/esp_iot_sdk_v1.1.0/lib/libwpa.a(wpa.o)
 .data          0x0000000000000000        0x0 /home/cnlohr/esp8266/esp_iot_sdk_v1.1.0/lib/libwpa.a(wpa.o)
 .xt.lit        0x0000000000000000      0x110 /home/cnlohr/esp8266/esp_iot_sdk_v1.1.0/lib/libwpa.a(wpa.o)
 .xt.prop       0x0000000000000000      0xc48 /home/cnlohr/esp8266/esp_iot_sdk_v1.1.0/lib/libwpa.a(wpa.o)
 .irom0.literal
                0x0000000000000000        0x0 /home/cnlohr/esp8266/esp_iot_sdk_v1.1.0/lib/libwpa.a(wpa_common.o)
 .text          0x0000000000000000        0x0 /home/cnlohr/esp8266/esp_iot_sdk_v1.1.0/lib/libwpa.a(wpa_common.o)
 .data          0x0000000000000000        0x0 /home/cnlohr/esp8266/esp_iot_sdk_v1.1.0/lib/libwpa.a(wpa_common.o)
 .bss           0x0000000000000000        0x0 /home/cnlohr/esp8266/esp_iot_sdk_v1.1.0/lib/libwpa.a(wpa_common.o)
 .xt.lit        0x0000000000000000       0x58 /home/cnlohr/esp8266/esp_iot_sdk_v1.1.0/lib/libwpa.a(wpa_common.o)
 .xt.prop       0x0000000000000000      0x72c /home/cnlohr/esp8266/esp_iot_sdk_v1.1.0/lib/libwpa.a(wpa_common.o)
 .irom0.literal
                0x0000000000000000        0x0 /home/cnlohr/esp8266/esp_iot_sdk_v1.1.0/lib/libwpa.a(wpa_debug.o)
 .text          0x0000000000000000        0x0 /home/cnlohr/esp8266/esp_iot_sdk_v1.1.0/lib/libwpa.a(wpa_debug.o)
 .data          0x0000000000000000        0x0 /home/cnlohr/esp8266/esp_iot_sdk_v1.1.0/lib/libwpa.a(wpa_debug.o)
 .bss           0x0000000000000000        0x0 /home/cnlohr/esp8266/esp_iot_sdk_v1.1.0/lib/libwpa.a(wpa_debug.o)
 .xt.prop       0x0000000000000000       0x3c /home/cnlohr/esp8266/esp_iot_sdk_v1.1.0/lib/libwpa.a(wpa_debug.o)
 .irom0.literal
                0x0000000000000000        0x0 /home/cnlohr/esp8266/esp_iot_sdk_v1.1.0/lib/libwpa.a(wpa_ie.o)
 .text          0x0000000000000000        0x0 /home/cnlohr/esp8266/esp_iot_sdk_v1.1.0/lib/libwpa.a(wpa_ie.o)
 .data          0x0000000000000000        0x0 /home/cnlohr/esp8266/esp_iot_sdk_v1.1.0/lib/libwpa.a(wpa_ie.o)
 .bss           0x0000000000000000        0x0 /home/cnlohr/esp8266/esp_iot_sdk_v1.1.0/lib/libwpa.a(wpa_ie.o)
 .xt.lit        0x0000000000000000       0x18 /home/cnlohr/esp8266/esp_iot_sdk_v1.1.0/lib/libwpa.a(wpa_ie.o)
 .xt.prop       0x0000000000000000      0x348 /home/cnlohr/esp8266/esp_iot_sdk_v1.1.0/lib/libwpa.a(wpa_ie.o)
 .irom0.literal
                0x0000000000000000        0x0 /home/cnlohr/esp8266/esp_iot_sdk_v1.1.0/lib/libwpa.a(wpa_main.o)
 .text          0x0000000000000000        0x0 /home/cnlohr/esp8266/esp_iot_sdk_v1.1.0/lib/libwpa.a(wpa_main.o)
 .data          0x0000000000000000        0x0 /home/cnlohr/esp8266/esp_iot_sdk_v1.1.0/lib/libwpa.a(wpa_main.o)
 .bss           0x0000000000000000        0x0 /home/cnlohr/esp8266/esp_iot_sdk_v1.1.0/lib/libwpa.a(wpa_main.o)
 .xt.lit        0x0000000000000000       0x48 /home/cnlohr/esp8266/esp_iot_sdk_v1.1.0/lib/libwpa.a(wpa_main.o)
 .xt.prop       0x0000000000000000      0x2b8 /home/cnlohr/esp8266/esp_iot_sdk_v1.1.0/lib/libwpa.a(wpa_main.o)
 .irom0.literal
                0x0000000000000000        0x0 /home/cnlohr/esp8266/esp_iot_sdk_v1.1.0/lib/libwpa.a(wpas_glue.o)
 .text          0x0000000000000000        0x0 /home/cnlohr/esp8266/esp_iot_sdk_v1.1.0/lib/libwpa.a(wpas_glue.o)
 .data          0x0000000000000000        0x0 /home/cnlohr/esp8266/esp_iot_sdk_v1.1.0/lib/libwpa.a(wpas_glue.o)
 .bss           0x0000000000000000        0x0 /home/cnlohr/esp8266/esp_iot_sdk_v1.1.0/lib/libwpa.a(wpas_glue.o)
 .xt.lit        0x0000000000000000       0x10 /home/cnlohr/esp8266/esp_iot_sdk_v1.1.0/lib/libwpa.a(wpas_glue.o)
 .xt.prop       0x0000000000000000      0x108 /home/cnlohr/esp8266/esp_iot_sdk_v1.1.0/lib/libwpa.a(wpas_glue.o)
 .irom0.literal
                0x0000000000000000        0x0 /home/cnlohr/esp8266/esp_iot_sdk_v1.1.0/lib/libwpa.a(aes-wrap.o)
 .text          0x0000000000000000        0x0 /home/cnlohr/esp8266/esp_iot_sdk_v1.1.0/lib/libwpa.a(aes-wrap.o)
 .data          0x0000000000000000        0x0 /home/cnlohr/esp8266/esp_iot_sdk_v1.1.0/lib/libwpa.a(aes-wrap.o)
 .bss           0x0000000000000000        0x0 /home/cnlohr/esp8266/esp_iot_sdk_v1.1.0/lib/libwpa.a(aes-wrap.o)
 .xt.lit        0x0000000000000000        0x8 /home/cnlohr/esp8266/esp_iot_sdk_v1.1.0/lib/libwpa.a(aes-wrap.o)
 .xt.prop       0x0000000000000000       0x60 /home/cnlohr/esp8266/esp_iot_sdk_v1.1.0/lib/libwpa.a(aes-wrap.o)
 .irom0.literal
                0x0000000000000000        0x0 /home/cnlohr/esp8266/esp_iot_sdk_v1.1.0/lib/libwpa.a(aes-internal-enc.o)
 .text          0x0000000000000000        0x0 /home/cnlohr/esp8266/esp_iot_sdk_v1.1.0/lib/libwpa.a(aes-internal-enc.o)
 .data          0x0000000000000000        0x0 /home/cnlohr/esp8266/esp_iot_sdk_v1.1.0/lib/libwpa.a(aes-internal-enc.o)
 .bss           0x0000000000000000        0x0 /home/cnlohr/esp8266/esp_iot_sdk_v1.1.0/lib/libwpa.a(aes-internal-enc.o)
 .xt.lit        0x0000000000000000       0x18 /home/cnlohr/esp8266/esp_iot_sdk_v1.1.0/lib/libwpa.a(aes-internal-enc.o)
 .xt.prop       0x0000000000000000       0xcc /home/cnlohr/esp8266/esp_iot_sdk_v1.1.0/lib/libwpa.a(aes-internal-enc.o)
 .irom0.literal
                0x0000000000000000        0x0 /home/cnlohr/esp8266/esp_iot_sdk_v1.1.0/lib/libnet80211.a(ieee80211_crypto_ccmp.o)
 .text          0x0000000000000000        0x0 /home/cnlohr/esp8266/esp_iot_sdk_v1.1.0/lib/libnet80211.a(ieee80211_crypto_ccmp.o)
 .bss           0x0000000000000000        0x0 /home/cnlohr/esp8266/esp_iot_sdk_v1.1.0/lib/libnet80211.a(ieee80211_crypto_ccmp.o)
 .xt.lit        0x0000000000000000        0x8 /home/cnlohr/esp8266/esp_iot_sdk_v1.1.0/lib/libnet80211.a(ieee80211_crypto_ccmp.o)
 .xt.prop       0x0000000000000000       0xc0 /home/cnlohr/esp8266/esp_iot_sdk_v1.1.0/lib/libnet80211.a(ieee80211_crypto_ccmp.o)
 .irom0.literal
                0x0000000000000000        0x0 /home/cnlohr/esp8266/esp_iot_sdk_v1.1.0/lib/libnet80211.a(ieee80211_crypto_tkip.o)
 .text          0x0000000000000000        0x0 /home/cnlohr/esp8266/esp_iot_sdk_v1.1.0/lib/libnet80211.a(ieee80211_crypto_tkip.o)
 .xt.lit        0x0000000000000000       0x10 /home/cnlohr/esp8266/esp_iot_sdk_v1.1.0/lib/libnet80211.a(ieee80211_crypto_tkip.o)
 .xt.prop       0x0000000000000000       0xe4 /home/cnlohr/esp8266/esp_iot_sdk_v1.1.0/lib/libnet80211.a(ieee80211_crypto_tkip.o)
 .irom0.literal
                0x0000000000000000        0x0 /home/cnlohr/esp8266/esp_iot_sdk_v1.1.0/lib/libnet80211.a(ieee80211_crypto_wep.o)
 .text          0x0000000000000000        0x0 /home/cnlohr/esp8266/esp_iot_sdk_v1.1.0/lib/libnet80211.a(ieee80211_crypto_wep.o)
 .bss           0x0000000000000000        0x0 /home/cnlohr/esp8266/esp_iot_sdk_v1.1.0/lib/libnet80211.a(ieee80211_crypto_wep.o)
 .xt.lit        0x0000000000000000        0x8 /home/cnlohr/esp8266/esp_iot_sdk_v1.1.0/lib/libnet80211.a(ieee80211_crypto_wep.o)
 .xt.prop       0x0000000000000000       0x78 /home/cnlohr/esp8266/esp_iot_sdk_v1.1.0/lib/libnet80211.a(ieee80211_crypto_wep.o)
 .irom0.literal
                0x0000000000000000        0x0 /home/cnlohr/esp8266/esp_iot_sdk_v1.1.0/lib/libphy.a(phy.o)
 .literal       0x0000000000000000        0x0 /home/cnlohr/esp8266/esp_iot_sdk_v1.1.0/lib/libphy.a(phy.o)
 .data          0x0000000000000000        0x0 /home/cnlohr/esp8266/esp_iot_sdk_v1.1.0/lib/libphy.a(phy.o)
 .xt.lit        0x0000000000000000       0x68 /home/cnlohr/esp8266/esp_iot_sdk_v1.1.0/lib/libphy.a(phy.o)
 .xt.prop       0x0000000000000000      0x1e0 /home/cnlohr/esp8266/esp_iot_sdk_v1.1.0/lib/libphy.a(phy.o)
 .irom0.literal
                0x0000000000000000        0x0 /home/cnlohr/esp8266/esp_iot_sdk_v1.1.0/lib/libphy.a(phy_chip_v6_ana.o)
 .text          0x0000000000000000        0x0 /home/cnlohr/esp8266/esp_iot_sdk_v1.1.0/lib/libphy.a(phy_chip_v6_ana.o)
 .data          0x0000000000000000        0x0 /home/cnlohr/esp8266/esp_iot_sdk_v1.1.0/lib/libphy.a(phy_chip_v6_ana.o)
 .bss           0x0000000000000000        0x0 /home/cnlohr/esp8266/esp_iot_sdk_v1.1.0/lib/libphy.a(phy_chip_v6_ana.o)
 .rodata        0x0000000000000000        0x8 /home/cnlohr/esp8266/esp_iot_sdk_v1.1.0/lib/libphy.a(phy_chip_v6_ana.o)
 .xt.lit        0x0000000000000000       0xc0 /home/cnlohr/esp8266/esp_iot_sdk_v1.1.0/lib/libphy.a(phy_chip_v6_ana.o)
 .xt.prop       0x0000000000000000      0xd5c /home/cnlohr/esp8266/esp_iot_sdk_v1.1.0/lib/libphy.a(phy_chip_v6_ana.o)
 .irom0.literal
                0x0000000000000000        0x0 /home/cnlohr/esp8266/esp_iot_sdk_v1.1.0/lib/libphy.a(phy_chip_v6.o)
 .literal       0x0000000000000000        0x0 /home/cnlohr/esp8266/esp_iot_sdk_v1.1.0/lib/libphy.a(phy_chip_v6.o)
 .xt.lit        0x0000000000000000      0x1f0 /home/cnlohr/esp8266/esp_iot_sdk_v1.1.0/lib/libphy.a(phy_chip_v6.o)
 .xt.prop       0x0000000000000000     0x1fb0 /home/cnlohr/esp8266/esp_iot_sdk_v1.1.0/lib/libphy.a(phy_chip_v6.o)
 .irom0.literal
                0x0000000000000000        0x0 /home/cnlohr/esp8266/esp_iot_sdk_v1.1.0/lib/libphy.a(phy_chip_v6_cal.o)
 .literal       0x0000000000000000        0x0 /home/cnlohr/esp8266/esp_iot_sdk_v1.1.0/lib/libphy.a(phy_chip_v6_cal.o)
 .text          0x0000000000000000       0xbf /home/cnlohr/esp8266/esp_iot_sdk_v1.1.0/lib/libphy.a(phy_chip_v6_cal.o)
 .data          0x0000000000000000        0x0 /home/cnlohr/esp8266/esp_iot_sdk_v1.1.0/lib/libphy.a(phy_chip_v6_cal.o)
 .xt.lit        0x0000000000000000       0xe0 /home/cnlohr/esp8266/esp_iot_sdk_v1.1.0/lib/libphy.a(phy_chip_v6_cal.o)
 .xt.prop       0x0000000000000000      0xf84 /home/cnlohr/esp8266/esp_iot_sdk_v1.1.0/lib/libphy.a(phy_chip_v6_cal.o)
 .irom0.literal
                0x0000000000000000        0x0 /home/cnlohr/esp8266/esp_iot_sdk_v1.1.0/lib/libphy.a(phy_chip_v6_unused.o)
 .text          0x0000000000000000        0x0 /home/cnlohr/esp8266/esp_iot_sdk_v1.1.0/lib/libphy.a(phy_chip_v6_unused.o)
 .data          0x0000000000000000        0x0 /home/cnlohr/esp8266/esp_iot_sdk_v1.1.0/lib/libphy.a(phy_chip_v6_unused.o)
 .bss           0x0000000000000000        0x0 /home/cnlohr/esp8266/esp_iot_sdk_v1.1.0/lib/libphy.a(phy_chip_v6_unused.o)
 .xt.lit        0x0000000000000000       0x28 /home/cnlohr/esp8266/esp_iot_sdk_v1.1.0/lib/libphy.a(phy_chip_v6_unused.o)
 .xt.prop       0x0000000000000000      0x1b0 /home/cnlohr/esp8266/esp_iot_sdk_v1.1.0/lib/libphy.a(phy_chip_v6_unused.o)
 .irom0.literal
                0x0000000000000000        0x0 /home/cnlohr/esp8266/esp_iot_sdk_v1.1.0/lib/libphy.a(phy_sleep.o)
 .literal       0x0000000000000000        0x0 /home/cnlohr/esp8266/esp_iot_sdk_v1.1.0/lib/libphy.a(phy_sleep.o)
 .xt.lit        0x0000000000000000       0xd8 /home/cnlohr/esp8266/esp_iot_sdk_v1.1.0/lib/libphy.a(phy_sleep.o)
 .xt.prop       0x0000000000000000      0x8c4 /home/cnlohr/esp8266/esp_iot_sdk_v1.1.0/lib/libphy.a(phy_sleep.o)
 .literal       0x0000000000000000        0x0 /home/cnlohr/esp8266/esp_iot_sdk_v1.1.0/lib/libpp.a(esf_buf.o)
 .irom0.literal
                0x0000000000000000        0x0 /home/cnlohr/esp8266/esp_iot_sdk_v1.1.0/lib/libpp.a(esf_buf.o)
 .data          0x0000000000000000        0x0 /home/cnlohr/esp8266/esp_iot_sdk_v1.1.0/lib/libpp.a(esf_buf.o)
 .xt.lit        0x0000000000000000       0x20 /home/cnlohr/esp8266/esp_iot_sdk_v1.1.0/lib/libpp.a(esf_buf.o)
 .xt.prop       0x0000000000000000      0x264 /home/cnlohr/esp8266/esp_iot_sdk_v1.1.0/lib/libpp.a(esf_buf.o)
 .irom0.literal
                0x0000000000000000        0x0 /home/cnlohr/esp8266/esp_iot_sdk_v1.1.0/lib/libpp.a(if_hwctrl.o)
 .text          0x0000000000000000        0x0 /home/cnlohr/esp8266/esp_iot_sdk_v1.1.0/lib/libpp.a(if_hwctrl.o)
 .data          0x0000000000000000        0x0 /home/cnlohr/esp8266/esp_iot_sdk_v1.1.0/lib/libpp.a(if_hwctrl.o)
 .xt.lit        0x0000000000000000       0x98 /home/cnlohr/esp8266/esp_iot_sdk_v1.1.0/lib/libpp.a(if_hwctrl.o)
 .xt.prop       0x0000000000000000      0x45c /home/cnlohr/esp8266/esp_iot_sdk_v1.1.0/lib/libpp.a(if_hwctrl.o)
 .literal       0x0000000000000000        0x0 /home/cnlohr/esp8266/esp_iot_sdk_v1.1.0/lib/libpp.a(lmac.o)
 .irom0.literal
                0x0000000000000000        0x0 /home/cnlohr/esp8266/esp_iot_sdk_v1.1.0/lib/libpp.a(lmac.o)
 .data          0x0000000000000000        0x0 /home/cnlohr/esp8266/esp_iot_sdk_v1.1.0/lib/libpp.a(lmac.o)
 .xt.lit        0x0000000000000000      0x110 /home/cnlohr/esp8266/esp_iot_sdk_v1.1.0/lib/libpp.a(lmac.o)
 .xt.prop       0x0000000000000000     0x1488 /home/cnlohr/esp8266/esp_iot_sdk_v1.1.0/lib/libpp.a(lmac.o)
 .irom0.literal
                0x0000000000000000        0x0 /home/cnlohr/esp8266/esp_iot_sdk_v1.1.0/lib/libpp.a(pm.o)
 .text          0x0000000000000000        0x0 /home/cnlohr/esp8266/esp_iot_sdk_v1.1.0/lib/libpp.a(pm.o)
 .xt.lit        0x0000000000000000      0x180 /home/cnlohr/esp8266/esp_iot_sdk_v1.1.0/lib/libpp.a(pm.o)
 .xt.prop       0x0000000000000000     0x1614 /home/cnlohr/esp8266/esp_iot_sdk_v1.1.0/lib/libpp.a(pm.o)
 .literal       0x0000000000000000        0x0 /home/cnlohr/esp8266/esp_iot_sdk_v1.1.0/lib/libpp.a(pp.o)
 .irom0.literal
                0x0000000000000000        0x0 /home/cnlohr/esp8266/esp_iot_sdk_v1.1.0/lib/libpp.a(pp.o)
 .xt.lit        0x0000000000000000      0x168 /home/cnlohr/esp8266/esp_iot_sdk_v1.1.0/lib/libpp.a(pp.o)
 .xt.prop       0x0000000000000000     0x1560 /home/cnlohr/esp8266/esp_iot_sdk_v1.1.0/lib/libpp.a(pp.o)
 .literal       0x0000000000000000        0x0 /home/cnlohr/esp8266/esp_iot_sdk_v1.1.0/lib/libpp.a(rate_control.o)
 .irom0.literal
                0x0000000000000000        0x0 /home/cnlohr/esp8266/esp_iot_sdk_v1.1.0/lib/libpp.a(rate_control.o)
 .xt.lit        0x0000000000000000       0x38 /home/cnlohr/esp8266/esp_iot_sdk_v1.1.0/lib/libpp.a(rate_control.o)
 .xt.prop       0x0000000000000000      0x1d4 /home/cnlohr/esp8266/esp_iot_sdk_v1.1.0/lib/libpp.a(rate_control.o)
 .literal       0x0000000000000000        0x0 /home/cnlohr/esp8266/esp_iot_sdk_v1.1.0/lib/libpp.a(trc.o)
 .irom0.literal
                0x0000000000000000        0x0 /home/cnlohr/esp8266/esp_iot_sdk_v1.1.0/lib/libpp.a(trc.o)
 .xt.lit        0x0000000000000000       0xa0 /home/cnlohr/esp8266/esp_iot_sdk_v1.1.0/lib/libpp.a(trc.o)
 .xt.prop       0x0000000000000000      0xe04 /home/cnlohr/esp8266/esp_iot_sdk_v1.1.0/lib/libpp.a(trc.o)
 .literal       0x0000000000000000        0x0 /home/cnlohr/esp8266/esp_iot_sdk_v1.1.0/lib/libpp.a(wdev.o)
 .irom0.literal
                0x0000000000000000        0x0 /home/cnlohr/esp8266/esp_iot_sdk_v1.1.0/lib/libpp.a(wdev.o)
 .xt.lit        0x0000000000000000      0x178 /home/cnlohr/esp8266/esp_iot_sdk_v1.1.0/lib/libpp.a(wdev.o)
 .xt.prop       0x0000000000000000     0x114c /home/cnlohr/esp8266/esp_iot_sdk_v1.1.0/lib/libpp.a(wdev.o)
 .data          0x0000000000000000        0x0 /home/cnlohr/esp8266/esp-open-sdk/xtensa-lx106-elf/lib/gcc/xtensa-lx106-elf/4.8.2/libgcc.a(_divsi3.o)
 .bss           0x0000000000000000        0x0 /home/cnlohr/esp8266/esp-open-sdk/xtensa-lx106-elf/lib/gcc/xtensa-lx106-elf/4.8.2/libgcc.a(_divsi3.o)
 .xt.prop       0x0000000000000000       0x9c /home/cnlohr/esp8266/esp-open-sdk/xtensa-lx106-elf/lib/gcc/xtensa-lx106-elf/4.8.2/libgcc.a(_divsi3.o)
 .data          0x0000000000000000        0x0 /home/cnlohr/esp8266/esp-open-sdk/xtensa-lx106-elf/lib/gcc/xtensa-lx106-elf/4.8.2/libgcc.a(_modsi3.o)
 .bss           0x0000000000000000        0x0 /home/cnlohr/esp8266/esp-open-sdk/xtensa-lx106-elf/lib/gcc/xtensa-lx106-elf/4.8.2/libgcc.a(_modsi3.o)
 .xt.prop       0x0000000000000000       0x84 /home/cnlohr/esp8266/esp-open-sdk/xtensa-lx106-elf/lib/gcc/xtensa-lx106-elf/4.8.2/libgcc.a(_modsi3.o)
 .data          0x0000000000000000        0x0 /home/cnlohr/esp8266/esp-open-sdk/xtensa-lx106-elf/lib/gcc/xtensa-lx106-elf/4.8.2/libgcc.a(_udivsi3.o)
 .bss           0x0000000000000000        0x0 /home/cnlohr/esp8266/esp-open-sdk/xtensa-lx106-elf/lib/gcc/xtensa-lx106-elf/4.8.2/libgcc.a(_udivsi3.o)
 .xt.prop       0x0000000000000000       0x9c /home/cnlohr/esp8266/esp-open-sdk/xtensa-lx106-elf/lib/gcc/xtensa-lx106-elf/4.8.2/libgcc.a(_udivsi3.o)
 .data          0x0000000000000000        0x0 /home/cnlohr/esp8266/esp-open-sdk/xtensa-lx106-elf/lib/gcc/xtensa-lx106-elf/4.8.2/libgcc.a(_umodsi3.o)
 .bss           0x0000000000000000        0x0 /home/cnlohr/esp8266/esp-open-sdk/xtensa-lx106-elf/lib/gcc/xtensa-lx106-elf/4.8.2/libgcc.a(_umodsi3.o)
 .xt.prop       0x0000000000000000       0x78 /home/cnlohr/esp8266/esp-open-sdk/xtensa-lx106-elf/lib/gcc/xtensa-lx106-elf/4.8.2/libgcc.a(_umodsi3.o)
 .data          0x0000000000000000        0x0 /home/cnlohr/esp8266/esp-open-sdk/xtensa-lx106-elf/lib/gcc/xtensa-lx106-elf/4.8.2/libgcc.a(_ashrdi3.o)
 .bss           0x0000000000000000        0x0 /home/cnlohr/esp8266/esp-open-sdk/xtensa-lx106-elf/lib/gcc/xtensa-lx106-elf/4.8.2/libgcc.a(_ashrdi3.o)
 .xt.prop       0x0000000000000000       0x3c /home/cnlohr/esp8266/esp-open-sdk/xtensa-lx106-elf/lib/gcc/xtensa-lx106-elf/4.8.2/libgcc.a(_ashrdi3.o)
 .data          0x0000000000000000        0x0 /home/cnlohr/esp8266/esp-open-sdk/xtensa-lx106-elf/lib/gcc/xtensa-lx106-elf/4.8.2/libgcc.a(_addsubsf3.o)
 .bss           0x0000000000000000        0x0 /home/cnlohr/esp8266/esp-open-sdk/xtensa-lx106-elf/lib/gcc/xtensa-lx106-elf/4.8.2/libgcc.a(_addsubsf3.o)
 .xt.lit        0x0000000000000000        0x8 /home/cnlohr/esp8266/esp-open-sdk/xtensa-lx106-elf/lib/gcc/xtensa-lx106-elf/4.8.2/libgcc.a(_addsubsf3.o)
 .xt.prop       0x0000000000000000      0x2e8 /home/cnlohr/esp8266/esp-open-sdk/xtensa-lx106-elf/lib/gcc/xtensa-lx106-elf/4.8.2/libgcc.a(_addsubsf3.o)
 .data          0x0000000000000000        0x0 /home/cnlohr/esp8266/esp-open-sdk/xtensa-lx106-elf/lib/gcc/xtensa-lx106-elf/4.8.2/libgcc.a(_mulsf3.o)
 .bss           0x0000000000000000        0x0 /home/cnlohr/esp8266/esp-open-sdk/xtensa-lx106-elf/lib/gcc/xtensa-lx106-elf/4.8.2/libgcc.a(_mulsf3.o)
 .xt.lit        0x0000000000000000        0x8 /home/cnlohr/esp8266/esp-open-sdk/xtensa-lx106-elf/lib/gcc/xtensa-lx106-elf/4.8.2/libgcc.a(_mulsf3.o)
 .xt.prop       0x0000000000000000      0x168 /home/cnlohr/esp8266/esp-open-sdk/xtensa-lx106-elf/lib/gcc/xtensa-lx106-elf/4.8.2/libgcc.a(_mulsf3.o)
 .data          0x0000000000000000        0x0 /home/cnlohr/esp8266/esp-open-sdk/xtensa-lx106-elf/lib/gcc/xtensa-lx106-elf/4.8.2/libgcc.a(_divsf3.o)
 .bss           0x0000000000000000        0x0 /home/cnlohr/esp8266/esp-open-sdk/xtensa-lx106-elf/lib/gcc/xtensa-lx106-elf/4.8.2/libgcc.a(_divsf3.o)
 .xt.lit        0x0000000000000000        0x8 /home/cnlohr/esp8266/esp-open-sdk/xtensa-lx106-elf/lib/gcc/xtensa-lx106-elf/4.8.2/libgcc.a(_divsf3.o)
 .xt.prop       0x0000000000000000      0x168 /home/cnlohr/esp8266/esp-open-sdk/xtensa-lx106-elf/lib/gcc/xtensa-lx106-elf/4.8.2/libgcc.a(_divsf3.o)
 .data          0x0000000000000000        0x0 /home/cnlohr/esp8266/esp-open-sdk/xtensa-lx106-elf/lib/gcc/xtensa-lx106-elf/4.8.2/libgcc.a(_fixsfsi.o)
 .bss           0x0000000000000000        0x0 /home/cnlohr/esp8266/esp-open-sdk/xtensa-lx106-elf/lib/gcc/xtensa-lx106-elf/4.8.2/libgcc.a(_fixsfsi.o)
 .xt.lit        0x0000000000000000        0x8 /home/cnlohr/esp8266/esp-open-sdk/xtensa-lx106-elf/lib/gcc/xtensa-lx106-elf/4.8.2/libgcc.a(_fixsfsi.o)
 .xt.prop       0x0000000000000000       0x6c /home/cnlohr/esp8266/esp-open-sdk/xtensa-lx106-elf/lib/gcc/xtensa-lx106-elf/4.8.2/libgcc.a(_fixsfsi.o)
 .data          0x0000000000000000        0x0 /home/cnlohr/esp8266/esp-open-sdk/xtensa-lx106-elf/lib/gcc/xtensa-lx106-elf/4.8.2/libgcc.a(_fixunssfsi.o)
 .bss           0x0000000000000000        0x0 /home/cnlohr/esp8266/esp-open-sdk/xtensa-lx106-elf/lib/gcc/xtensa-lx106-elf/4.8.2/libgcc.a(_fixunssfsi.o)
 .xt.lit        0x0000000000000000        0x8 /home/cnlohr/esp8266/esp-open-sdk/xtensa-lx106-elf/lib/gcc/xtensa-lx106-elf/4.8.2/libgcc.a(_fixunssfsi.o)
 .xt.prop       0x0000000000000000       0xa8 /home/cnlohr/esp8266/esp-open-sdk/xtensa-lx106-elf/lib/gcc/xtensa-lx106-elf/4.8.2/libgcc.a(_fixunssfsi.o)
 .data          0x0000000000000000        0x0 /home/cnlohr/esp8266/esp-open-sdk/xtensa-lx106-elf/lib/gcc/xtensa-lx106-elf/4.8.2/libgcc.a(_floatsisf.o)
 .bss           0x0000000000000000        0x0 /home/cnlohr/esp8266/esp-open-sdk/xtensa-lx106-elf/lib/gcc/xtensa-lx106-elf/4.8.2/libgcc.a(_floatsisf.o)
 .xt.prop       0x0000000000000000       0x60 /home/cnlohr/esp8266/esp-open-sdk/xtensa-lx106-elf/lib/gcc/xtensa-lx106-elf/4.8.2/libgcc.a(_floatsisf.o)
 .data          0x0000000000000000        0x0 /home/cnlohr/esp8266/esp-open-sdk/xtensa-lx106-elf/lib/gcc/xtensa-lx106-elf/4.8.2/libgcc.a(_muldf3.o)
 .bss           0x0000000000000000        0x0 /home/cnlohr/esp8266/esp-open-sdk/xtensa-lx106-elf/lib/gcc/xtensa-lx106-elf/4.8.2/libgcc.a(_muldf3.o)
 .xt.lit        0x0000000000000000        0x8 /home/cnlohr/esp8266/esp-open-sdk/xtensa-lx106-elf/lib/gcc/xtensa-lx106-elf/4.8.2/libgcc.a(_muldf3.o)
 .xt.prop       0x0000000000000000      0x294 /home/cnlohr/esp8266/esp-open-sdk/xtensa-lx106-elf/lib/gcc/xtensa-lx106-elf/4.8.2/libgcc.a(_muldf3.o)
 .data          0x0000000000000000        0x0 /home/cnlohr/esp8266/esp-open-sdk/xtensa-lx106-elf/lib/gcc/xtensa-lx106-elf/4.8.2/libgcc.a(_divdf3.o)
 .bss           0x0000000000000000        0x0 /home/cnlohr/esp8266/esp-open-sdk/xtensa-lx106-elf/lib/gcc/xtensa-lx106-elf/4.8.2/libgcc.a(_divdf3.o)
 .xt.lit        0x0000000000000000        0x8 /home/cnlohr/esp8266/esp-open-sdk/xtensa-lx106-elf/lib/gcc/xtensa-lx106-elf/4.8.2/libgcc.a(_divdf3.o)
 .xt.prop       0x0000000000000000      0x264 /home/cnlohr/esp8266/esp-open-sdk/xtensa-lx106-elf/lib/gcc/xtensa-lx106-elf/4.8.2/libgcc.a(_divdf3.o)
 .data          0x0000000000000000        0x0 /home/cnlohr/esp8266/esp-open-sdk/xtensa-lx106-elf/lib/gcc/xtensa-lx106-elf/4.8.2/libgcc.a(_fixdfsi.o)
 .bss           0x0000000000000000        0x0 /home/cnlohr/esp8266/esp-open-sdk/xtensa-lx106-elf/lib/gcc/xtensa-lx106-elf/4.8.2/libgcc.a(_fixdfsi.o)
 .xt.lit        0x0000000000000000        0x8 /home/cnlohr/esp8266/esp-open-sdk/xtensa-lx106-elf/lib/gcc/xtensa-lx106-elf/4.8.2/libgcc.a(_fixdfsi.o)
 .xt.prop       0x0000000000000000       0x6c /home/cnlohr/esp8266/esp-open-sdk/xtensa-lx106-elf/lib/gcc/xtensa-lx106-elf/4.8.2/libgcc.a(_fixdfsi.o)
 .data          0x0000000000000000        0x0 /home/cnlohr/esp8266/esp-open-sdk/xtensa-lx106-elf/lib/gcc/xtensa-lx106-elf/4.8.2/libgcc.a(_floatsidf.o)
 .bss           0x0000000000000000        0x0 /home/cnlohr/esp8266/esp-open-sdk/xtensa-lx106-elf/lib/gcc/xtensa-lx106-elf/4.8.2/libgcc.a(_floatsidf.o)
 .xt.prop       0x0000000000000000       0x54 /home/cnlohr/esp8266/esp-open-sdk/xtensa-lx106-elf/lib/gcc/xtensa-lx106-elf/4.8.2/libgcc.a(_floatsidf.o)
 .data          0x0000000000000000        0x0 /home/cnlohr/esp8266/esp-open-sdk/xtensa-lx106-elf/lib/gcc/xtensa-lx106-elf/4.8.2/libgcc.a(_truncdfsf2.o)
 .bss           0x0000000000000000        0x0 /home/cnlohr/esp8266/esp-open-sdk/xtensa-lx106-elf/lib/gcc/xtensa-lx106-elf/4.8.2/libgcc.a(_truncdfsf2.o)
 .xt.lit        0x0000000000000000        0x8 /home/cnlohr/esp8266/esp-open-sdk/xtensa-lx106-elf/lib/gcc/xtensa-lx106-elf/4.8.2/libgcc.a(_truncdfsf2.o)
 .xt.prop       0x0000000000000000       0xb4 /home/cnlohr/esp8266/esp-open-sdk/xtensa-lx106-elf/lib/gcc/xtensa-lx106-elf/4.8.2/libgcc.a(_truncdfsf2.o)
 .data          0x0000000000000000        0x0 /home/cnlohr/esp8266/esp-open-sdk/xtensa-lx106-elf/lib/gcc/xtensa-lx106-elf/4.8.2/libgcc.a(_muldi3.o)
 .bss           0x0000000000000000        0x0 /home/cnlohr/esp8266/esp-open-sdk/xtensa-lx106-elf/lib/gcc/xtensa-lx106-elf/4.8.2/libgcc.a(_muldi3.o)
 .xt.lit        0x0000000000000000        0x8 /home/cnlohr/esp8266/esp-open-sdk/xtensa-lx106-elf/lib/gcc/xtensa-lx106-elf/4.8.2/libgcc.a(_muldi3.o)
 .xt.prop       0x0000000000000000       0x30 /home/cnlohr/esp8266/esp-open-sdk/xtensa-lx106-elf/lib/gcc/xtensa-lx106-elf/4.8.2/libgcc.a(_muldi3.o)
 .data          0x0000000000000000        0x0 /home/cnlohr/esp8266/esp-open-sdk/xtensa-lx106-elf/lib/gcc/xtensa-lx106-elf/4.8.2/libgcc.a(_popcountsi2.o)
 .bss           0x0000000000000000        0x0 /home/cnlohr/esp8266/esp-open-sdk/xtensa-lx106-elf/lib/gcc/xtensa-lx106-elf/4.8.2/libgcc.a(_popcountsi2.o)
 .xt.lit        0x0000000000000000        0x8 /home/cnlohr/esp8266/esp-open-sdk/xtensa-lx106-elf/lib/gcc/xtensa-lx106-elf/4.8.2/libgcc.a(_popcountsi2.o)
 .xt.prop       0x0000000000000000       0x3c /home/cnlohr/esp8266/esp-open-sdk/xtensa-lx106-elf/lib/gcc/xtensa-lx106-elf/4.8.2/libgcc.a(_popcountsi2.o)
 .data          0x0000000000000000        0x0 /home/cnlohr/esp8266/esp-open-sdk/xtensa-lx106-elf/lib/gcc/xtensa-lx106-elf/4.8.2/libgcc.a(_divdi3.o)
 .bss           0x0000000000000000        0x0 /home/cnlohr/esp8266/esp-open-sdk/xtensa-lx106-elf/lib/gcc/xtensa-lx106-elf/4.8.2/libgcc.a(_divdi3.o)
 .eh_frame      0x0000000000000000       0x30 /home/cnlohr/esp8266/esp-open-sdk/xtensa-lx106-elf/lib/gcc/xtensa-lx106-elf/4.8.2/libgcc.a(_divdi3.o)
 .xt.lit        0x0000000000000000        0x8 /home/cnlohr/esp8266/esp-open-sdk/xtensa-lx106-elf/lib/gcc/xtensa-lx106-elf/4.8.2/libgcc.a(_divdi3.o)
 .xt.prop       0x0000000000000000      0x204 /home/cnlohr/esp8266/esp-open-sdk/xtensa-lx106-elf/lib/gcc/xtensa-lx106-elf/4.8.2/libgcc.a(_divdi3.o)
 .data          0x0000000000000000        0x0 /home/cnlohr/esp8266/esp-open-sdk/xtensa-lx106-elf/lib/gcc/xtensa-lx106-elf/4.8.2/libgcc.a(_umoddi3.o)
 .bss           0x0000000000000000        0x0 /home/cnlohr/esp8266/esp-open-sdk/xtensa-lx106-elf/lib/gcc/xtensa-lx106-elf/4.8.2/libgcc.a(_umoddi3.o)
 .eh_frame      0x0000000000000000       0x30 /home/cnlohr/esp8266/esp-open-sdk/xtensa-lx106-elf/lib/gcc/xtensa-lx106-elf/4.8.2/libgcc.a(_umoddi3.o)
 .xt.lit        0x0000000000000000        0x8 /home/cnlohr/esp8266/esp-open-sdk/xtensa-lx106-elf/lib/gcc/xtensa-lx106-elf/4.8.2/libgcc.a(_umoddi3.o)
 .xt.prop       0x0000000000000000      0x150 /home/cnlohr/esp8266/esp-open-sdk/xtensa-lx106-elf/lib/gcc/xtensa-lx106-elf/4.8.2/libgcc.a(_umoddi3.o)
 .data          0x0000000000000000        0x0 /home/cnlohr/esp8266/esp-open-sdk/xtensa-lx106-elf/lib/gcc/xtensa-lx106-elf/4.8.2/libgcc.a(_umulsidi3.o)
 .bss           0x0000000000000000        0x0 /home/cnlohr/esp8266/esp-open-sdk/xtensa-lx106-elf/lib/gcc/xtensa-lx106-elf/4.8.2/libgcc.a(_umulsidi3.o)
 .xt.prop       0x0000000000000000       0x3c /home/cnlohr/esp8266/esp-open-sdk/xtensa-lx106-elf/lib/gcc/xtensa-lx106-elf/4.8.2/libgcc.a(_umulsidi3.o)
 .text          0x0000000000000000        0x0 /home/cnlohr/esp8266/esp-open-sdk/xtensa-lx106-elf/lib/gcc/xtensa-lx106-elf/4.8.2/libgcc.a(_popcount_tab.o)
 .data          0x0000000000000000        0x0 /home/cnlohr/esp8266/esp-open-sdk/xtensa-lx106-elf/lib/gcc/xtensa-lx106-elf/4.8.2/libgcc.a(_popcount_tab.o)
 .bss           0x0000000000000000        0x0 /home/cnlohr/esp8266/esp-open-sdk/xtensa-lx106-elf/lib/gcc/xtensa-lx106-elf/4.8.2/libgcc.a(_popcount_tab.o)
 .xt.prop       0x0000000000000000        0xc /home/cnlohr/esp8266/esp-open-sdk/xtensa-lx106-elf/lib/gcc/xtensa-lx106-elf/4.8.2/libgcc.a(_popcount_tab.o)
 .data          0x0000000000000000        0x0 /home/cnlohr/esp8266/esp-open-sdk/xtensa-lx106-elf/lib/gcc/xtensa-lx106-elf/4.8.2/libgcc.a(_extendsfdf2.o)
 .bss           0x0000000000000000        0x0 /home/cnlohr/esp8266/esp-open-sdk/xtensa-lx106-elf/lib/gcc/xtensa-lx106-elf/4.8.2/libgcc.a(_extendsfdf2.o)
 .xt.lit        0x0000000000000000        0x8 /home/cnlohr/esp8266/esp-open-sdk/xtensa-lx106-elf/lib/gcc/xtensa-lx106-elf/4.8.2/libgcc.a(_extendsfdf2.o)
 .xt.prop       0x0000000000000000       0x6c /home/cnlohr/esp8266/esp-open-sdk/xtensa-lx106-elf/lib/gcc/xtensa-lx106-elf/4.8.2/libgcc.a(_extendsfdf2.o)

Memory Configuration

Name             Origin             Length             Attributes
dport0_0_seg     0x000000003ff00000 0x0000000000000010
dram0_0_seg      0x000000003ffe8000 0x0000000000014000
iram1_0_seg      0x0000000040100000 0x0000000000008000
irom0_0_seg      0x0000000040240000 0x000000000003c000
*default*        0x0000000000000000 0xffffffffffffffff

Linker script and memory map

LOAD /tmp/ccD0XWq7.o
LOAD /tmp/cc1kLqWr.ltrans0.ltrans.o
LOAD /tmp/cc1kLqWr.ltrans1.ltrans.o
LOAD /tmp/cc1kLqWr.ltrans2.ltrans.o
LOAD /tmp/ccTVUk8r.o
LOAD /tmp/ccb8aiUM.o
LOAD /tmp/ccdGDhN7.o
LOAD /tmp/ccb4gMLs.o
LOAD /tmp/ccxoLx4N.o
LOAD /tmp/cc9sP7z9.o
LOAD /tmp/ccTnNM9u.o
LOAD /tmp/ccPYRjOQ.o
LOAD /tmp/ccVKB0Ac.o
LOAD /tmp/cchzMpty.o
LOAD /tmp/ccZcGZpU.o
LOAD /home/cnlohr/esp8266/esp-open-sdk/xtensa-lx106-elf/lib/gcc/xtensa-lx106-elf/4.8.2/libgcc.a
LOAD /home/cnlohr/esp8266/esp_iot_sdk_v1.1.0/lib/libmain.a
LOAD /home/cnlohr/esp8266/esp_iot_sdk_v1.1.0/lib/libnet80211.a
LOAD /home/cnlohr/esp8266/esp_iot_sdk_v1.1.0/lib/liblwip.a
LOAD /home/cnlohr/esp8266/esp_iot_sdk_v1.1.0/lib/libwpa.a
LOAD /home/cnlohr/esp8266/esp_iot_sdk_v1.1.0/lib/libnet80211.a
LOAD /home/cnlohr/esp8266/esp_iot_sdk_v1.1.0/lib/libphy.a
LOAD /home/cnlohr/esp8266/esp_iot_sdk_v1.1.0/lib/libpp.a
LOAD /home/cnlohr/esp8266/esp-open-sdk/xtensa-lx106-elf/lib/gcc/xtensa-lx106-elf/4.8.2/libgcc.a
                0x0000000040000000                PROVIDE (_memmap_vecbase_reset, 0x40000000)
                0x0000000000000110                _memmap_cacheattr_wb_base = 0x110
                0x0000000000000110                _memmap_cacheattr_wt_base = 0x110
                0x0000000000000220                _memmap_cacheattr_bp_base = 0x220
                0x00000000fffff00f                _memmap_cacheattr_unused_mask = 0xfffff00f
                0x000000002222211f                _memmap_cacheattr_wb_trapnull = 0x2222211f
                0x000000002222211f                _memmap_cacheattr_wba_trapnull = 0x2222211f
                0x000000002222211f                _memmap_cacheattr_wbna_trapnull = 0x2222211f
                0x000000002222211f                _memmap_cacheattr_wt_trapnull = 0x2222211f
                0x000000002222222f                _memmap_cacheattr_bp_trapnull = 0x2222222f
                0x00000000fffff11f                _memmap_cacheattr_wb_strict = 0xfffff11f
                0x00000000fffff11f                _memmap_cacheattr_wt_strict = 0xfffff11f
                0x00000000fffff22f                _memmap_cacheattr_bp_strict = 0xfffff22f
                0x0000000022222112                _memmap_cacheattr_wb_allvalid = 0x22222112
                0x0000000022222112                _memmap_cacheattr_wt_allvalid = 0x22222112
                0x0000000022222222                _memmap_cacheattr_bp_allvalid = 0x22222222
                0x000000002222211f                PROVIDE (_memmap_cacheattr_reset, _memmap_cacheattr_wb_trapnull)

.dport0.rodata  0x000000003ff00000        0x0
                0x000000003ff00000                _dport0_rodata_start = ABSOLUTE (.)
 *(.dport0.rodata)
 *(.dport.rodata)
                0x000000003ff00000                _dport0_rodata_end = ABSOLUTE (.)

.dport0.literal
                0x000000003ff00000        0x0
                0x000000003ff00000                _dport0_literal_start = ABSOLUTE (.)
 *(.dport0.literal)
 *(.dport.literal)
                0x000000003ff00000                _dport0_literal_end = ABSOLUTE (.)

.dport0.data    0x000000003ff00000        0x0
                0x000000003ff00000                _dport0_data_start = ABSOLUTE (.)
 *(.dport0.data)
 *(.dport.data)
                0x000000003ff00000                _dport0_data_end = ABSOLUTE (.)

.data           0x000000003ffe8000      0x534
                0x000000003ffe8000                _data_start = ABSOLUTE (.)
 *(.data)
 .data          0x000000003ffe8000        0x4 /tmp/cc1kLqWr.ltrans1.ltrans.o
                0x000000003ffe8000                bus_online
 .data          0x000000003ffe8004        0x5 /home/cnlohr/esp8266/esp_iot_sdk_v1.1.0/lib/libmain.a(user_interface.o)
                0x000000003ffe8005                timer2_ms_flag
                0x000000003ffe8006                dhcps_flag
                0x000000003ffe8007                dhcpc_flag
                0x000000003ffe8008                reconnect_internal
 .data          0x000000003ffe8009        0x4 /home/cnlohr/esp8266/esp_iot_sdk_v1.1.0/lib/libmain.a(nmi-vector.o)
                0x000000003ffe8009                _Pri_3_HandlerAddress
 *fill*         0x000000003ffe800d        0x3 
 .data          0x000000003ffe8010        0x1 /home/cnlohr/esp8266/esp_iot_sdk_v1.1.0/lib/libmain.a(app_main.o)
 *fill*         0x000000003ffe8011        0x3 
 .data          0x000000003ffe8014      0x1a8 /home/cnlohr/esp8266/esp_iot_sdk_v1.1.0/lib/libnet80211.a(ieee80211_phy.o)
 *fill*         0x000000003ffe81bc        0x4 
 .data          0x000000003ffe81c0        0x6 /home/cnlohr/esp8266/esp_iot_sdk_v1.1.0/lib/libnet80211.a(ieee80211_proto.o)
                0x000000003ffe81c0                ieee80211_addr_bcast
 *fill*         0x000000003ffe81c6        0x2 
 .data          0x000000003ffe81c8       0x1c /home/cnlohr/esp8266/esp_iot_sdk_v1.1.0/lib/libnet80211.a(ieee80211_action.o)
 .data          0x000000003ffe81e4        0x4 /home/cnlohr/esp8266/esp_iot_sdk_v1.1.0/lib/liblwip.a(dhcp.o)
 .data          0x000000003ffe81e8        0x8 /home/cnlohr/esp8266/esp_iot_sdk_v1.1.0/lib/liblwip.a(dhcpserver.o)
 .data          0x000000003ffe81f0        0x8 /home/cnlohr/esp8266/esp_iot_sdk_v1.1.0/lib/liblwip.a(tcp.o)
 .data          0x000000003ffe81f8       0x18 /home/cnlohr/esp8266/esp_iot_sdk_v1.1.0/lib/libnet80211.a(ieee80211_crypto_ccmp.o)
                0x000000003ffe81f8                ccmp
 .data          0x000000003ffe8210       0x18 /home/cnlohr/esp8266/esp_iot_sdk_v1.1.0/lib/libnet80211.a(ieee80211_crypto_tkip.o)
                0x000000003ffe8210                tkip
 .data          0x000000003ffe8228       0x18 /home/cnlohr/esp8266/esp_iot_sdk_v1.1.0/lib/libnet80211.a(ieee80211_crypto_wep.o)
                0x000000003ffe8228                wep
 .data          0x000000003ffe8240       0x53 /home/cnlohr/esp8266/esp_iot_sdk_v1.1.0/lib/libphy.a(phy_chip_v6.o)
                0x000000003ffe8242                tx_rf_ana_gain
                0x000000003ffe8264                tx_pwctrl_atten_init_en
                0x000000003ffe8270                rx_gain_swp
                0x000000003ffe8290                test_rffreq_txcap
 *fill*         0x000000003ffe8293        0x1 
 .data          0x000000003ffe8294        0x4 /home/cnlohr/esp8266/esp_iot_sdk_v1.1.0/lib/libphy.a(phy_sleep.o)
                0x000000003ffe8294                chip_version
 .data          0x000000003ffe8298        0x1 /home/cnlohr/esp8266/esp_iot_sdk_v1.1.0/lib/libpp.a(pm.o)
 *fill*         0x000000003ffe8299        0x3 
 .data          0x000000003ffe829c       0x18 /home/cnlohr/esp8266/esp_iot_sdk_v1.1.0/lib/libpp.a(pp.o)
                0x000000003ffe829c                soft_wdt_interval
                0x000000003ffe82a0                NoiseTimerInterval
                0x000000003ffe82a8                sleep_start_wait_time
                0x000000003ffe82b0                tcb
 *fill*         0x000000003ffe82b4        0xc 
 .data          0x000000003ffe82c0       0x40 /home/cnlohr/esp8266/esp_iot_sdk_v1.1.0/lib/libpp.a(rate_control.o)
 .data          0x000000003ffe8300      0x22c /home/cnlohr/esp8266/esp_iot_sdk_v1.1.0/lib/libpp.a(trc.o)
 .data          0x000000003ffe852c        0x8 /home/cnlohr/esp8266/esp_iot_sdk_v1.1.0/lib/libpp.a(wdev.o)
 *(.data.*)
 *(.gnu.linkonce.d.*)
 *(.data1)
 *(.sdata)
 *(.sdata.*)
 *(.gnu.linkonce.s.*)
 *(.sdata2)
 *(.sdata2.*)
 *(.gnu.linkonce.s2.*)
 *(.jcr)
                0x000000003ffe8534                _data_end = ABSOLUTE (.)

.rodata         0x000000003ffe8540      0x9ec
                0x000000003ffe8540                _rodata_start = ABSOLUTE (.)
 *(.rodata)
 .rodata        0x000000003ffe8540      0x108 /tmp/cc1kLqWr.ltrans0.ltrans.o
 .rodata        0x000000003ffe8648       0x40 /tmp/cc1kLqWr.ltrans1.ltrans.o
                0x000000003ffe8684                GlobalRewriteFlash
 .rodata        0x000000003ffe8688        0x8 /home/cnlohr/esp8266/esp_iot_sdk_v1.1.0/lib/libmain.a(eagle_lib.o)
 .rodata        0x000000003ffe8690        0x2 /home/cnlohr/esp8266/esp_iot_sdk_v1.1.0/lib/libmain.a(mem_manager.o)
 *fill*         0x000000003ffe8692        0x2 
 .rodata        0x000000003ffe8694        0x4 /home/cnlohr/esp8266/esp_iot_sdk_v1.1.0/lib/libnet80211.a(ieee80211_hostap.o)
 .rodata        0x000000003ffe8698        0x4 /home/cnlohr/esp8266/esp_iot_sdk_v1.1.0/lib/libnet80211.a(ieee80211_output.o)
 *fill*         0x000000003ffe869c        0x4 
 .rodata        0x000000003ffe86a0       0x70 /home/cnlohr/esp8266/esp_iot_sdk_v1.1.0/lib/libnet80211.a(ieee80211_proto.o)
 .rodata        0x000000003ffe8710        0x8 /home/cnlohr/esp8266/esp_iot_sdk_v1.1.0/lib/libnet80211.a(wl_cnx.o)
 .rodata        0x000000003ffe8718        0x8 /home/cnlohr/esp8266/esp_iot_sdk_v1.1.0/lib/liblwip.a(dhcpserver.o)
 .rodata        0x000000003ffe8720        0xc /home/cnlohr/esp8266/esp_iot_sdk_v1.1.0/lib/liblwip.a(etharp.o)
                0x000000003ffe8720                ethbroadcast
                0x000000003ffe8726                ethzero
 .rodata        0x000000003ffe872c        0x8 /home/cnlohr/esp8266/esp_iot_sdk_v1.1.0/lib/liblwip.a(ip_addr.o)
                0x000000003ffe872c                ip_addr_any
                0x000000003ffe8730                ip_addr_broadcast
 *fill*         0x000000003ffe8734        0xc 
 .rodata        0x000000003ffe8740       0x14 /home/cnlohr/esp8266/esp_iot_sdk_v1.1.0/lib/liblwip.a(memp.o)
                0x000000003ffe8740                memp_sizes
 *fill*         0x000000003ffe8754        0xc 
 .rodata        0x000000003ffe8760       0x2d /home/cnlohr/esp8266/esp_iot_sdk_v1.1.0/lib/liblwip.a(tcp.o)
                0x000000003ffe8760                tcp_pcb_lists
                0x000000003ffe8770                tcp_persist_backoff
                0x000000003ffe8780                tcp_backoff
 *fill*         0x000000003ffe878d        0x3 
 .rodata        0x000000003ffe8790        0x6 /home/cnlohr/esp8266/esp_iot_sdk_v1.1.0/lib/libwpa.a(ap_config.o)
 *fill*         0x000000003ffe8796        0x2 
 .rodata        0x000000003ffe8798        0x8 /home/cnlohr/esp8266/esp_iot_sdk_v1.1.0/lib/libwpa.a(wpa.o)
 .rodata        0x000000003ffe87a0        0xc /home/cnlohr/esp8266/esp_iot_sdk_v1.1.0/lib/libwpa.a(wpa_common.o)
 .rodata        0x000000003ffe87ac        0x8 /home/cnlohr/esp8266/esp_iot_sdk_v1.1.0/lib/libphy.a(phy_chip_v6.o)
 .rodata        0x000000003ffe87b4      0x100 /home/cnlohr/esp8266/esp-open-sdk/xtensa-lx106-elf/lib/gcc/xtensa-lx106-elf/4.8.2/libgcc.a(_popcount_tab.o)
                0x000000003ffe87b4                __popcount_tab
 *(.rodata.*)
 .rodata.str1.4
                0x000000003ffe88b4      0x2ac /tmp/cc1kLqWr.ltrans0.ltrans.o
                                        0x2bc (size before relaxing)
 .rodata.str1.4
                0x000000003ffe8b60      0x12f /tmp/cc1kLqWr.ltrans1.ltrans.o
                                        0x143 (size before relaxing)
 *fill*         0x000000003ffe8c8f        0x1 
 .rodata.str1.4
                0x000000003ffe8c90       0xf8 /tmp/cc1kLqWr.ltrans2.ltrans.o
 .rodata.str1.4
                0x000000003ffe8d88       0x22 /home/cnlohr/esp8266/esp_iot_sdk_v1.1.0/lib/libmain.a(user_interface.o)
 *fill*         0x000000003ffe8daa        0x2 
 .rodata.str1.4
                0x000000003ffe8dac       0x63 /home/cnlohr/esp8266/esp_iot_sdk_v1.1.0/lib/libmain.a(app_main.o)
                                         0x6b (size before relaxing)
 .rodata.str1.4
                0x0000000000000000        0x7 /home/cnlohr/esp8266/esp_iot_sdk_v1.1.0/lib/libnet80211.a(ieee80211.o)
 .rodata.str1.4
                0x0000000000000000        0x7 /home/cnlohr/esp8266/esp_iot_sdk_v1.1.0/lib/libnet80211.a(ieee80211_output.o)
 *fill*         0x000000003ffe8e0f        0x1 
 .rodata.str1.4
                0x000000003ffe8e10        0x4 /home/cnlohr/esp8266/esp_iot_sdk_v1.1.0/lib/libnet80211.a(ieee80211_scan.o)
 .rodata.str1.4
                0x000000003ffe8e14        0xf /home/cnlohr/esp8266/esp_iot_sdk_v1.1.0/lib/liblwip.a(dns.o)
 .rodata.str1.4
                0x0000000000000000        0xf /home/cnlohr/esp8266/esp_iot_sdk_v1.1.0/lib/liblwip.a(espconn_tcp.o)
                                          0x1 (size before relaxing)
 *fill*         0x000000003ffe8e23        0x1 
 .rodata.str1.4
                0x000000003ffe8e24       0x88 /home/cnlohr/esp8266/esp_iot_sdk_v1.1.0/lib/liblwip.a(mdns.o)
 .rodata.str1.4
                0x000000003ffe8eac       0x3c /home/cnlohr/esp8266/esp_iot_sdk_v1.1.0/lib/libwpa.a(wpa_auth.o)
                                         0x43 (size before relaxing)
 .rodata.str1.4
                0x0000000000000000       0x17 /home/cnlohr/esp8266/esp_iot_sdk_v1.1.0/lib/libwpa.a(wpa.o)
 .rodata.str1.4
                0x000000003ffe8ee8        0x9 /home/cnlohr/esp8266/esp_iot_sdk_v1.1.0/lib/libwpa.a(wpa_common.o)
 *fill*         0x000000003ffe8ef1        0x3 
 .rodata.str1.4
                0x000000003ffe8ef4        0x7 /home/cnlohr/esp8266/esp_iot_sdk_v1.1.0/lib/libpp.a(lmac.o)
 *fill*         0x000000003ffe8efb        0x1 
 .rodata.str1.4
                0x000000003ffe8efc       0x17 /home/cnlohr/esp8266/esp_iot_sdk_v1.1.0/lib/libpp.a(pm.o)
 *fill*         0x000000003ffe8f13        0x1 
 .rodata.str1.4
                0x000000003ffe8f14        0x5 /home/cnlohr/esp8266/esp_iot_sdk_v1.1.0/lib/libpp.a(pp.o)
 *fill*         0x000000003ffe8f19        0x3 
 .rodata.str1.4
                0x000000003ffe8f1c        0x7 /home/cnlohr/esp8266/esp_iot_sdk_v1.1.0/lib/libpp.a(wdev.o)
 *(.gnu.linkonce.r.*)
 *(.rodata1)
                0x000000003ffe8f23                __XT_EXCEPTION_TABLE__ = ABSOLUTE (.)
 *(.xt_except_table)
 *(.gcc_except_table)
 *(.gnu.linkonce.e.*)
 *(.gnu.version_r)
 *(.eh_frame)
 *crtbegin.o(.ctors)
 *(EXCLUDE_FILE(*crtend.o) .ctors)
 *(SORT(.ctors.*))
 *(.ctors)
 *crtbegin.o(.dtors)
 *(EXCLUDE_FILE(*crtend.o) .dtors)
 *(SORT(.dtors.*))
 *(.dtors)
                0x000000003ffe8f23                __XT_EXCEPTION_DESCS__ = ABSOLUTE (.)
 *(.xt_except_desc)
 *(.gnu.linkonce.h.*)
                0x000000003ffe8f23                __XT_EXCEPTION_DESCS_END__ = ABSOLUTE (.)
 *(.xt_except_desc_end)
 *(.dynamic)
 *(.gnu.version_d)
                0x000000003ffe8f24                . = ALIGN (0x4)
 *fill*         0x000000003ffe8f23        0x1 
                0x000000003ffe8f24                _bss_table_start = ABSOLUTE (.)
                0x000000003ffe8f24        0x4 LONG 0x3ffe8f30 _bss_start
                0x000000003ffe8f28        0x4 LONG 0x3fff2ff0 _bss_end
                0x000000003ffe8f2c                _bss_table_end = ABSOLUTE (.)
                0x000000003ffe8f2c                _rodata_end = ABSOLUTE (.)

.bss            0x000000003ffe8f30     0xa0c0
                0x000000003ffe8f30                . = ALIGN (0x8)
                0x000000003ffe8f30                _bss_start = ABSOLUTE (.)
 *(.dynsbss)
 *(.sbss)
 *(.sbss.*)
 *(.gnu.linkonce.sb.*)
 *(.scommon)
 *(.sbss2)
 *(.sbss2.*)
 *(.gnu.linkonce.sb2.*)
 *(.dynbss)
 *(.bss)
 .bss           0x000000003ffe8f30      0x42c /tmp/cc1kLqWr.ltrans0.ltrans.o
 .bss           0x000000003ffe935c      0xa40 /tmp/cc1kLqWr.ltrans1.ltrans.o
                0x000000003ffe935c                generic_buffer
                0x000000003ffe9938                generic_ptr
                0x000000003ffe993c                need_to_switch_back_to_soft_ap
                0x000000003ffe9940                stream_data_raw
                0x000000003ffe9944                pespconn
                0x000000003ffe9948                stream_data
                0x000000003ffe994c                in_range_setting
                0x000000003ffe9950                magIIR
                0x000000003ffe995c                magNow
                0x000000003ffe9968                accIIR
                0x000000003ffe9974                accNow
                0x000000003ffe9980                gyrIIR
                0x000000003ffe998c                gyrNow
                0x000000003ffe9998                barIIR
                0x000000003ffe999c                barNow
                0x000000003ffe99a0                tempNow
                0x000000003ffe99a4                systemFrame
                0x000000003ffe99a8                voltNow
                0x000000003ffe99ac                curhttp
                0x000000003ffe99b0                HTTPConnections
                0x000000003ffe9d50                tick_flag
 .bss           0x000000003ffe9d9c      0x204 /tmp/cc1kLqWr.ltrans2.ltrans.o
                0x000000003ffe9d9c                md$1703
                0x000000003ffe9d9e                mc$1702
                0x000000003ffe9da0                b2$1700
                0x000000003ffe9da2                b1$1699
                0x000000003ffe9da4                ac6$1698
                0x000000003ffe9da6                ac5$1697
                0x000000003ffe9da8                ac4$1696
                0x000000003ffe9daa                ac3$1695
                0x000000003ffe9dac                ac2$1694
                0x000000003ffe9dae                ac1$1692
                0x000000003ffe9db0                settings
                0x000000003ffe9df8                generic_print_buffer
 .bss           0x000000003ffe9fa0       0x18 /home/cnlohr/esp8266/esp_iot_sdk_v1.1.0/lib/libmain.a(mem_manager.o)
 *fill*         0x000000003ffe9fb8        0x8 
 .bss           0x000000003ffe9fc0      0x141 /home/cnlohr/esp8266/esp_iot_sdk_v1.1.0/lib/libmain.a(user_interface.o)
                0x000000003ffea0b7                deep_sleep_flag
                0x000000003ffea0b8                cpu_overclock
                0x000000003ffea0bc                event_cb
                0x000000003ffea0c0                status_led_output_level
                0x000000003ffea0c4                done_cb
                0x000000003ffea0c8                rst_if
                0x000000003ffea0e4                default_interface
                0x000000003ffea0e8                promiscuous_cb
 *fill*         0x000000003ffea101        0xf 
 .bss           0x000000003ffea110      0x1c0 /home/cnlohr/esp8266/esp_iot_sdk_v1.1.0/lib/libmain.a(nmi-vector.o)
 .bss           0x000000003ffea2d0       0x3d /home/cnlohr/esp8266/esp_iot_sdk_v1.1.0/lib/libmain.a(app_main.o)
                0x000000003ffea2d4                info
                0x000000003ffea2f8                check_timeouts_timer
                0x000000003ffea30c                user_init_flag
 *fill*         0x000000003ffea30d        0x3 
 .bss           0x000000003ffea310        0x8 /home/cnlohr/esp8266/esp_iot_sdk_v1.1.0/lib/libmain.a(eagle_lwip_if.o)
 .bss           0x000000003ffea318      0x558 /home/cnlohr/esp8266/esp_iot_sdk_v1.1.0/lib/libnet80211.a(ieee80211.o)
                0x000000003ffea318                g_ic
 .bss           0x000000003ffea870       0x20 /home/cnlohr/esp8266/esp_iot_sdk_v1.1.0/lib/libnet80211.a(ieee80211_hostap.o)
                0x000000003ffea888                TmpSTAAPCloseAP
                0x000000003ffea889                PendFreeBcnEb
 .bss           0x000000003ffea890       0xcc /home/cnlohr/esp8266/esp_iot_sdk_v1.1.0/lib/libnet80211.a(ieee80211_scan.o)
                0x000000003ffea890                gScanStruct
                0x000000003ffea944                auth_type
                0x000000003ffea946                scannum
 .bss           0x000000003ffea95c       0x3c /home/cnlohr/esp8266/esp_iot_sdk_v1.1.0/lib/libnet80211.a(wl_chm.o)
 .bss           0x000000003ffea998      0x418 /home/cnlohr/esp8266/esp_iot_sdk_v1.1.0/lib/libnet80211.a(wl_cnx.o)
                0x000000003ffead98                sta_con_timer
                0x000000003ffeadac                g_cnx_probe_rc_list_cb
 .bss           0x000000003ffeadb0       0x38 /home/cnlohr/esp8266/esp_iot_sdk_v1.1.0/lib/liblwip.a(dhcp.o)
                0x000000003ffeadb0                dhcp_rx_options_given
                0x000000003ffeadc0                dhcp_rx_options_val
 .bss           0x000000003ffeade8      0x248 /home/cnlohr/esp8266/esp_iot_sdk_v1.1.0/lib/liblwip.a(dhcpserver.o)
                0x000000003ffeadf8                s
 .bss           0x000000003ffeb030      0x690 /home/cnlohr/esp8266/esp_iot_sdk_v1.1.0/lib/liblwip.a(dns.o)
 .bss           0x000000003ffeb6c0      0x104 /home/cnlohr/esp8266/esp_iot_sdk_v1.1.0/lib/liblwip.a(espconn.o)
                0x000000003ffeb6c0                plink_active
                0x000000003ffeb6c4                pserver_list
                0x000000003ffeb6d0                premot
                0x000000003ffeb790                pktinfo
 *fill*         0x000000003ffeb7c4        0xc 
 .bss           0x000000003ffeb7d0       0x78 /home/cnlohr/esp8266/esp_iot_sdk_v1.1.0/lib/liblwip.a(espconn_tcp.o)
                0x000000003ffeb7d0                espconn_TaskQueue
 *fill*         0x000000003ffeb848        0x8 
 .bss           0x000000003ffeb850      0x100 /home/cnlohr/esp8266/esp_iot_sdk_v1.1.0/lib/liblwip.a(etharp.o)
 .bss           0x000000003ffeb950        0xc /home/cnlohr/esp8266/esp_iot_sdk_v1.1.0/lib/liblwip.a(igmp.o)
 *fill*         0x000000003ffeb95c        0x4 
 .bss           0x000000003ffeb960       0x10 /home/cnlohr/esp8266/esp_iot_sdk_v1.1.0/lib/liblwip.a(ip_addr.o)
 .bss           0x000000003ffeb970       0x12 /home/cnlohr/esp8266/esp_iot_sdk_v1.1.0/lib/liblwip.a(ip.o)
                0x000000003ffeb970                current_iphdr_dest
                0x000000003ffeb974                current_iphdr_src
                0x000000003ffeb978                current_netif
                0x000000003ffeb97c                current_header
 *fill*         0x000000003ffeb982        0xe 
 .bss           0x000000003ffeb990      0x421 /home/cnlohr/esp8266/esp_iot_sdk_v1.1.0/lib/liblwip.a(mdns.o)
                0x000000003ffeb994                PUCK_SERVICE
                0x000000003ffeb99c                PUCK_PORT
                0x000000003ffeb9a8                mdns_timer
 *fill*         0x000000003ffebdb1        0x3 
 .bss           0x000000003ffebdb4        0x9 /home/cnlohr/esp8266/esp_iot_sdk_v1.1.0/lib/liblwip.a(netif.o)
                0x000000003ffebdb4                netif_list
                0x000000003ffebdb8                netif_default
 *fill*         0x000000003ffebdbd        0x3 
 .bss           0x000000003ffebdc0        0x4 /home/cnlohr/esp8266/esp_iot_sdk_v1.1.0/lib/liblwip.a(raw.o)
 .bss           0x000000003ffebdc4       0x34 /home/cnlohr/esp8266/esp_iot_sdk_v1.1.0/lib/liblwip.a(tcp_in.o)
                0x000000003ffebdf4                tcp_input_pcb
 .bss           0x000000003ffebdf8       0x1c /home/cnlohr/esp8266/esp_iot_sdk_v1.1.0/lib/liblwip.a(tcp.o)
                0x000000003ffebdfc                tcp_active_pcbs
                0x000000003ffebe00                tcp_tmp_pcb
                0x000000003ffebe04                tcp_tw_pcbs
                0x000000003ffebe08                tcp_bound_pcbs
                0x000000003ffebe0c                tcp_listen_pcbs
                0x000000003ffebe10                tcp_ticks
 .bss           0x000000003ffebe14        0xc /home/cnlohr/esp8266/esp_iot_sdk_v1.1.0/lib/liblwip.a(timers.o)
 .bss           0x000000003ffebe20        0x4 /home/cnlohr/esp8266/esp_iot_sdk_v1.1.0/lib/liblwip.a(udp.o)
                0x000000003ffebe20                udp_pcbs
 *fill*         0x000000003ffebe24        0xc 
 .bss           0x000000003ffebe30      0x27a /home/cnlohr/esp8266/esp_iot_sdk_v1.1.0/lib/libwpa.a(wpa.o)
 *fill*         0x000000003ffec0aa        0x6 
 .bss           0x000000003ffec0b0        0x8 /home/cnlohr/esp8266/esp_iot_sdk_v1.1.0/lib/libnet80211.a(ieee80211_crypto_tkip.o)
 .bss           0x000000003ffec0b8        0x4 /home/cnlohr/esp8266/esp_iot_sdk_v1.1.0/lib/libphy.a(phy.o)
 *fill*         0x000000003ffec0bc        0x4 
 .bss           0x000000003ffec0c0      0x3ab /home/cnlohr/esp8266/esp_iot_sdk_v1.1.0/lib/libphy.a(phy_chip_v6.o)
                0x000000003ffec0c0                g_phyFuns
                0x000000003ffec0c4                rxiq_compute_num
                0x000000003ffec0c8                rxdc_init_flag
                0x000000003ffec0cc                check_result
                0x000000003ffec0d0                chip6_sleep_params
                0x000000003ffec2b4                chip6_phy_init_ctrl
                0x000000003ffec328                phy_freq_offset
                0x000000003ffec32a                do_pwctrl_flag
                0x000000003ffec32b                pwctrl_debug
                0x000000003ffec32c                txbk_dpdby_flag
                0x000000003ffec32e                sw_scan_mode
                0x000000003ffec340                periodic_cal_dc_num
                0x000000003ffec344                periodic_cal_flag
                0x000000003ffec345                bbpll_cal_flag
                0x000000003ffec346                phy_in_most_power
                0x000000003ffec347                deep_sleep_en
                0x000000003ffec348                rtc_mem_check_fail
                0x000000003ffec349                rtc_recovery_en
                0x000000003ffec34a                phy_in_vdd33_offset
                0x000000003ffec34b                phy_set_most_tpw_disbg
                0x000000003ffec34c                phy_set_most_tpw_index
                0x000000003ffec350                adc_rand_noise
                0x000000003ffec354                dpd_bypass_original
                0x000000003ffec358                noise_array
                0x000000003ffec460                tx_pwctrl_atten_init
 *fill*         0x000000003ffec46b        0x1 
 .bss           0x000000003ffec46c        0x6 /home/cnlohr/esp8266/esp_iot_sdk_v1.1.0/lib/libphy.a(phy_chip_v6_cal.o)
                0x000000003ffec46c                loop_pwctrl_pwdet_error_accum_high_power
                0x000000003ffec46e                tx_pwctrl_pk_num
                0x000000003ffec46f                loop_pwctrl_correct_atten_high_power
                0x000000003ffec470                tx_pwctrl_set_chan_flag
                0x000000003ffec471                rxiq_cover_fail_num
 *fill*         0x000000003ffec472        0x2 
 .bss           0x000000003ffec474        0x7 /home/cnlohr/esp8266/esp_iot_sdk_v1.1.0/lib/libphy.a(phy_sleep.o)
                0x000000003ffec474                periodic_cal_sat
                0x000000003ffec476                lslp_mem_opt_8266
                0x000000003ffec478                software_slp_reject
                0x000000003ffec479                SDIO_slp_reject
                0x000000003ffec47a                hardware_reject
 *fill*         0x000000003ffec47b        0x5 
 .bss           0x000000003ffec480     0x1214 /home/cnlohr/esp8266/esp_iot_sdk_v1.1.0/lib/libpp.a(esf_buf.o)
 *fill*         0x000000003ffed694        0xc 
 .bss           0x000000003ffed6a0       0x30 /home/cnlohr/esp8266/esp_iot_sdk_v1.1.0/lib/libpp.a(if_hwctrl.o)
                0x000000003ffed6a0                interface_mask
                0x000000003ffed6b0                if_ctrl
 .bss           0x000000003ffed6d0      0x150 /home/cnlohr/esp8266/esp_iot_sdk_v1.1.0/lib/libpp.a(lmac.o)
                0x000000003ffed6d4                lmacConfMib
 .bss           0x000000003ffed820      0x11a /home/cnlohr/esp8266/esp_iot_sdk_v1.1.0/lib/libpp.a(pm.o)
 *fill*         0x000000003ffed93a        0x6 
 .bss           0x000000003ffed940      0x2d2 /home/cnlohr/esp8266/esp_iot_sdk_v1.1.0/lib/libpp.a(pp.o)
                0x000000003ffed944                SoftWdtTimer
                0x000000003ffed96c                pend_flag_noise_check
                0x000000003ffed974                pend_flag_periodic_cal
                0x000000003ffed98c                idle_timer_reopen_flag
                0x000000003ffed98d                dbg_stop_sw_wdt
                0x000000003ffed98e                dbg_stop_hw_wdt
 *fill*         0x000000003ffedc12        0xe 
 .bss           0x000000003ffedc20      0x100 /home/cnlohr/esp8266/esp_iot_sdk_v1.1.0/lib/libpp.a(rate_control.o)
 .bss           0x000000003ffedd20      0x448 /home/cnlohr/esp8266/esp_iot_sdk_v1.1.0/lib/libpp.a(trc.o)
 *fill*         0x000000003ffee168        0x8 
 .bss           0x000000003ffee170     0x4e80 /home/cnlohr/esp8266/esp_iot_sdk_v1.1.0/lib/libpp.a(wdev.o)
                0x000000003ffee170                wDevCtrl
                0x000000003ffee314                WdevTimOffSet
 *(.bss.*)
 *(.gnu.linkonce.b.*)
 *(COMMON)
                0x000000003fff2ff0                . = ALIGN (0x8)
                0x000000003fff2ff0                _bss_end = ABSOLUTE (.)
                0x000000003fff2ff0                _heap_start = ABSOLUTE (.)

.text           0x0000000040100000     0x7398
                0x0000000040100000                _stext = .
                0x0000000040100000                _text_start = ABSOLUTE (.)
 *(.UserEnter.text)
 .UserEnter.text
                0x0000000040100000        0xd /home/cnlohr/esp8266/esp_iot_sdk_v1.1.0/lib/libmain.a(vector.o)
                                         0x14 (size before relaxing)
                0x0000000040100004                call_user_start
                0x0000000040100010                . = ALIGN (0x10)
 *fill*         0x000000004010000d        0x3 
 *(.DebugExceptionVector.text)
 .DebugExceptionVector.text
                0x0000000040100010        0x6 /home/cnlohr/esp8266/esp_iot_sdk_v1.1.0/lib/libmain.a(debug-vector.o)
                0x0000000040100010                _DebugExceptionVector
                0x0000000040100020                . = ALIGN (0x10)
 *fill*         0x0000000040100016        0xa 
 *(.NMIExceptionVector.text)
 .NMIExceptionVector.text
                0x0000000040100020        0x6 /home/cnlohr/esp8266/esp_iot_sdk_v1.1.0/lib/libmain.a(nmi-vector.o)
                                          0xd (size before relaxing)
                0x0000000040100020                _NMIExceptionVector
                0x0000000040100030                . = ALIGN (0x10)
 *fill*         0x0000000040100026        0xa 
 *(.KernelExceptionVector.text)
 .KernelExceptionVector.text
                0x0000000040100030        0x6 /home/cnlohr/esp8266/esp_iot_sdk_v1.1.0/lib/libmain.a(kernel-vector.o)
                0x0000000040100030                _KernelExceptionVector
                0x0000000040100036        0x4 LONG 0x0
                0x000000004010003a        0x4 LONG 0x0
                0x000000004010003e        0x4 LONG 0x0
                0x0000000040100042        0x4 LONG 0x0
                0x0000000040100050                . = ALIGN (0x10)
 *fill*         0x0000000040100046        0xa 
 *(.UserExceptionVector.text)
 .UserExceptionVector.text
                0x0000000040100050        0x6 /home/cnlohr/esp8266/esp_iot_sdk_v1.1.0/lib/libmain.a(user-vector.o)
                                          0xd (size before relaxing)
                0x0000000040100050                _UserExceptionVector
                0x0000000040100056        0x4 LONG 0x0
                0x000000004010005a        0x4 LONG 0x0
                0x000000004010005e        0x4 LONG 0x0
                0x0000000040100062        0x4 LONG 0x0
                0x0000000040100070                . = ALIGN (0x10)
 *fill*         0x0000000040100066        0xa 
 *(.DoubleExceptionVector.text)
 .DoubleExceptionVector.text
                0x0000000040100070        0x6 /home/cnlohr/esp8266/esp_iot_sdk_v1.1.0/lib/libmain.a(double-vector.o)
                0x0000000040100070                _DoubleExceptionVector
                0x0000000040100076        0x4 LONG 0x0
                0x000000004010007a        0x4 LONG 0x0
                0x000000004010007e        0x4 LONG 0x0
                0x0000000040100082        0x4 LONG 0x0
                0x0000000040100090                . = ALIGN (0x10)
 *fill*         0x0000000040100086        0xa 
 *(.entry.text)
 *(.init.literal)
 *(.init)
 *(.literal .text .literal.* .text.* .stub .gnu.warning .gnu.linkonce.literal.* .gnu.linkonce.t.*.literal .gnu.linkonce.t.*)
 .literal       0x0000000040100090       0x28 /tmp/cc1kLqWr.ltrans0.ltrans.o
                                         0xf4 (size before relaxing)
 .literal       0x00000000401000b8       0x8c /tmp/cc1kLqWr.ltrans1.ltrans.o
                                        0x160 (size before relaxing)
 .literal       0x0000000040100144        0x8 /home/cnlohr/esp8266/esp-open-sdk/xtensa-lx106-elf/lib/gcc/xtensa-lx106-elf/4.8.2/libgcc.a(_addsubsf3.o)
                                          0xc (size before relaxing)
 .literal       0x000000004010014c        0x4 /home/cnlohr/esp8266/esp-open-sdk/xtensa-lx106-elf/lib/gcc/xtensa-lx106-elf/4.8.2/libgcc.a(_mulsf3.o)
                                         0x10 (size before relaxing)
 .literal       0x0000000040100150        0x0 /home/cnlohr/esp8266/esp-open-sdk/xtensa-lx106-elf/lib/gcc/xtensa-lx106-elf/4.8.2/libgcc.a(_divsf3.o)
                                         0x10 (size before relaxing)
 .literal       0x0000000040100150        0x0 /home/cnlohr/esp8266/esp-open-sdk/xtensa-lx106-elf/lib/gcc/xtensa-lx106-elf/4.8.2/libgcc.a(_fixsfsi.o)
                                          0x4 (size before relaxing)
 .literal       0x0000000040100150        0x0 /home/cnlohr/esp8266/esp-open-sdk/xtensa-lx106-elf/lib/gcc/xtensa-lx106-elf/4.8.2/libgcc.a(_fixunssfsi.o)
                                          0x4 (size before relaxing)
 .literal       0x0000000040100150        0xc /home/cnlohr/esp8266/esp-open-sdk/xtensa-lx106-elf/lib/gcc/xtensa-lx106-elf/4.8.2/libgcc.a(_muldf3.o)
                                         0x10 (size before relaxing)
 .literal       0x000000004010015c        0x0 /home/cnlohr/esp8266/esp-open-sdk/xtensa-lx106-elf/lib/gcc/xtensa-lx106-elf/4.8.2/libgcc.a(_divdf3.o)
                                         0x10 (size before relaxing)
 .literal       0x000000004010015c        0x0 /home/cnlohr/esp8266/esp-open-sdk/xtensa-lx106-elf/lib/gcc/xtensa-lx106-elf/4.8.2/libgcc.a(_fixdfsi.o)
                                          0x4 (size before relaxing)
 .literal       0x000000004010015c        0x4 /home/cnlohr/esp8266/esp-open-sdk/xtensa-lx106-elf/lib/gcc/xtensa-lx106-elf/4.8.2/libgcc.a(_truncdfsf2.o)
                                          0x8 (size before relaxing)
 .literal       0x0000000040100160        0x0 /home/cnlohr/esp8266/esp-open-sdk/xtensa-lx106-elf/lib/gcc/xtensa-lx106-elf/4.8.2/libgcc.a(_muldi3.o)
                                          0x4 (size before relaxing)
 .literal       0x0000000040100160        0x4 /home/cnlohr/esp8266/esp-open-sdk/xtensa-lx106-elf/lib/gcc/xtensa-lx106-elf/4.8.2/libgcc.a(_popcountsi2.o)
 .literal       0x0000000040100164        0x0 /home/cnlohr/esp8266/esp-open-sdk/xtensa-lx106-elf/lib/gcc/xtensa-lx106-elf/4.8.2/libgcc.a(_divdi3.o)
                                         0x48 (size before relaxing)
 .literal       0x0000000040100164        0x0 /home/cnlohr/esp8266/esp-open-sdk/xtensa-lx106-elf/lib/gcc/xtensa-lx106-elf/4.8.2/libgcc.a(_umoddi3.o)
                                         0x40 (size before relaxing)
 .literal       0x0000000040100164        0x0 /home/cnlohr/esp8266/esp-open-sdk/xtensa-lx106-elf/lib/gcc/xtensa-lx106-elf/4.8.2/libgcc.a(_extendsfdf2.o)
                                          0x8 (size before relaxing)
 .text          0x0000000040100164      0x35d /tmp/cc1kLqWr.ltrans0.ltrans.o
                0x00000000401001b0                GetByte
                0x00000000401002ac                Read16$1673
                0x00000000401002d4                SendByte
                0x00000000401003bc                SendStop
                0x000000004010043c                SendStart
                0x0000000040100480                EndTCPWrite
                0x00000000401004a4                PushBlob
 *fill*         0x00000000401004c1        0x3 
 .text          0x00000000401004c4      0x5cc /tmp/cc1kLqWr.ltrans1.ltrans.o
                                        0x5f8 (size before relaxing)
                0x00000000401006a0                MyRewriteFlash$2165
 .text          0x0000000040100a90       0xd7 /home/cnlohr/esp8266/esp_iot_sdk_v1.1.0/lib/libmain.a(ets_timer.o)
                                         0xdf (size before relaxing)
                0x0000000040100ab0                ets_timer_arm_new
 *fill*         0x0000000040100b67        0x1 
 .text          0x0000000040100b68      0x1c9 /home/cnlohr/esp8266/esp_iot_sdk_v1.1.0/lib/libmain.a(mem_manager.o)
                                        0x1f1 (size before relaxing)
                0x0000000040100b80                pvPortMalloc
                0x0000000040100c34                vPortFree
                0x0000000040100c74                pvPortCalloc
                0x0000000040100c9c                pvPortZalloc
                0x0000000040100cb0                pvPortRealloc
                0x0000000040100ce8                vPortInitialiseBlocks
 *fill*         0x0000000040100d31        0x3 
 .text          0x0000000040100d34      0x16e /home/cnlohr/esp8266/esp_iot_sdk_v1.1.0/lib/libmain.a(spi_flash.o)
                                        0x1ae (size before relaxing)
                0x0000000040100d44                spi_flash_get_id
                0x0000000040100da0                spi_flash_read_status
                0x0000000040100dd4                spi_flash_write_status
                0x0000000040100e04                spi_flash_erase_sector
                0x0000000040100e2c                spi_flash_write
                0x0000000040100e7c                spi_flash_read
 *fill*         0x0000000040100ea2        0x2 
 .text          0x0000000040100ea4      0x4c6 /home/cnlohr/esp8266/esp_iot_sdk_v1.1.0/lib/libmain.a(user_interface.o)
                                        0x53e (size before relaxing)
                0x0000000040100eb4                os_printf_plus
                0x0000000040100f7c                system_restart_local
                0x0000000040101250                system_phy_temperature_alert
                0x000000004010126c                system_get_time
                0x0000000040101288                system_os_post
                0x00000000401012bc                system_rtc_mem_write
                0x0000000040101314                system_rtc_mem_read
 *fill*         0x000000004010136a        0x2 
 .text          0x000000004010136c       0xc7 /home/cnlohr/esp8266/esp_iot_sdk_v1.1.0/lib/libmain.a(nmi-vector.o)
                                         0xcb (size before relaxing)
                0x0000000040101378                _NMILevelVector
 *fill*         0x0000000040101433        0x1 
 .text          0x0000000040101434       0x1e /home/cnlohr/esp8266/esp_iot_sdk_v1.1.0/lib/libmain.a(user-vector.o)
                0x0000000040101438                _UserExceptionVector_1
 *fill*         0x0000000040101452        0x2 
 .text          0x0000000040101454      0x4d6 /home/cnlohr/esp8266/esp_iot_sdk_v1.1.0/lib/libmain.a(app_main.o)
                                        0x56a (size before relaxing)
                0x000000004010145c                Cache_Read_Enable_New
                0x0000000040101494                NmiTimSetFunc
                0x00000000401014a0                NMI_Handler
                0x00000000401014f8                call_user_start_local
 *fill*         0x000000004010192a        0x2 
 .text          0x000000004010192c       0xcf /home/cnlohr/esp8266/esp_iot_sdk_v1.1.0/lib/libnet80211.a(wl_chm.o)
                                         0xe7 (size before relaxing)
                0x0000000040101930                chm_acquire_lock
                0x0000000040101974                chm_release_lock
                0x000000004010198c                chm_cancel_op
                0x00000000401019c8                chm_return_home_channel
                0x00000000401019f4                chm_get_current_channel
 *fill*         0x00000000401019fb        0x1 
 .text          0x00000000401019fc       0x21 /home/cnlohr/esp8266/esp_iot_sdk_v1.1.0/lib/liblwip.a(dns.o)
                0x0000000040101a04                dns_tmr
 *fill*         0x0000000040101a1d        0x3 
 .text          0x0000000040101a20       0x33 /home/cnlohr/esp8266/esp_iot_sdk_v1.1.0/lib/liblwip.a(etharp.o)
                                         0x37 (size before relaxing)
 *fill*         0x0000000040101a53        0x1 
 .text          0x0000000040101a54      0x10c /home/cnlohr/esp8266/esp_iot_sdk_v1.1.0/lib/liblwip.a(mdns.o)
                                        0x144 (size before relaxing)
                0x0000000040101a58                getPcb
                0x0000000040101a64                mdns_close
                0x0000000040101a88                mdns_set_name
                0x0000000040101aa8                mdns_enable
                0x0000000040101ac4                mdns_disable
                0x0000000040101ae4                mdns_get_hostname
                0x0000000040101b00                mdns_set_hostname
 .text          0x0000000040101b60      0x1cc /home/cnlohr/esp8266/esp_iot_sdk_v1.1.0/lib/liblwip.a(tcp.o)
                                        0x1ec (size before relaxing)
 .text          0x0000000040101d2c      0x160 /home/cnlohr/esp8266/esp_iot_sdk_v1.1.0/lib/liblwip.a(tcp_out.o)
                                        0x164 (size before relaxing)
 .text          0x0000000040101e8c       0xb0 /home/cnlohr/esp8266/esp_iot_sdk_v1.1.0/lib/liblwip.a(timers.o)
                                         0xc0 (size before relaxing)
 .text          0x0000000040101f3c       0x53 /home/cnlohr/esp8266/esp_iot_sdk_v1.1.0/lib/libphy.a(phy.o)
                                         0x5f (size before relaxing)
                0x0000000040101f44                register_phy_ops
                0x0000000040101f64                register_get_phy_addr
                0x0000000040101f6c                phy_change_channel
                0x0000000040101f84                phy_get_mactime
 *fill*         0x0000000040101f8f        0x1 
 .text          0x0000000040101f90       0xeb /home/cnlohr/esp8266/esp_iot_sdk_v1.1.0/lib/libphy.a(phy_sleep.o)
                                        0x103 (size before relaxing)
                0x0000000040101f98                pm_rtc_clock_cali
                0x0000000040102050                clockgate_watchdog
 *fill*         0x000000004010207b        0x1 
 .text          0x000000004010207c      0x25a /home/cnlohr/esp8266/esp_iot_sdk_v1.1.0/lib/libpp.a(esf_buf.o)
                                        0x2fa (size before relaxing)
                0x0000000040102080                esf_rx_buf_alloc
                0x00000000401020d0                esf_buf_alloc
                0x00000000401021f4                esf_buf_recycle
 *fill*         0x00000000401022d6        0x2 
 .text          0x00000000401022d8     0x148e /home/cnlohr/esp8266/esp_iot_sdk_v1.1.0/lib/libpp.a(lmac.o)
                                       0x1766 (size before relaxing)
                0x00000000401022dc                lmacIsActive
                0x00000000401022f0                lmacIsIdle
                0x00000000401026bc                lmacSetAcParam
                0x000000004010271c                lmacProcessTXStartData
                0x00000000401028dc                lmacProcessTxSuccess
                0x0000000040102a14                GetAccess
                0x0000000040102a20                lmacDiscardAgedMSDU
                0x0000000040102a34                lmacRecycleMPDU
                0x0000000040102f48                lmacProcessCollisions
                0x0000000040102fb0                lmacProcessCollision
                0x0000000040103028                lmacMSDUAged
                0x00000000401033c8                lmacProcessCtsTimeout
                0x0000000040103414                lmacProcessAckTimeout
                0x0000000040103450                lmacProcessRtsStart
                0x0000000040103468                lmacProcessTxRtsError
                0x0000000040103508                lmacProcessTxError
                0x000000004010359c                lmacTxFrame
                0x0000000040103750                lmacRxDone
 *fill*         0x0000000040103766        0x2 
 .text          0x0000000040103768      0xe4c /home/cnlohr/esp8266/esp_iot_sdk_v1.1.0/lib/libpp.a(pp.o)
                                       0x1000 (size before relaxing)
                0x000000004010379c                pp_soft_wdt_feed
                0x0000000040103818                ppProcessWaitQ
                0x000000004010382c                ppRecycleRxPkt
                0x0000000040103884                ppCheckTxIdle
                0x0000000040103b34                ppProcessTxQ
                0x0000000040103bac                ppGetTxQFirstAvail_Locked
                0x0000000040103bfc                ppFetchTxQFirstAvail
                0x0000000040103c3c                ppDequeueTxQ
                0x0000000040103c64                ppRollBackTxQ
                0x0000000040103c88                ppRecordBarRRC
                0x0000000040103c98                ppTxqUpdateBitmap
                0x0000000040103cbc                ppEnqueueTxDone
                0x0000000040103d2c                ppEnqueueRxq
                0x0000000040104434                ppDiscardMPDU
                0x0000000040104458                pp_post
                0x000000004010449c                pp_post2
                0x00000000401044c8                ppCalTxop
                0x0000000040104544                ppCalFrameTimes
 .text          0x00000000401045b4       0xf5 /home/cnlohr/esp8266/esp_iot_sdk_v1.1.0/lib/libpp.a(rate_control.o)
                                        0x109 (size before relaxing)
                0x00000000401045d4                RC_GetAckRate
                0x00000000401045e0                RC_GetRtsRate
                0x00000000401045f0                RC_GetAckTime
                0x0000000040104604                RC_GetCtsTime
                0x000000004010463c                RC_GetBlockAckTime
 *fill*         0x00000000401046a9        0x3 
 .text          0x00000000401046ac      0x809 /home/cnlohr/esp8266/esp_iot_sdk_v1.1.0/lib/libpp.a(trc.o)
                                        0x83d (size before relaxing)
                0x0000000040104820                rcUpdateTxDone
                0x00000000401048b4                rcUpdateRxDone
                0x0000000040104910                rcUpdateDataRxDone
                0x0000000040104928                rcGetSched
                0x00000000401049d4                rcGetRate
                0x0000000040104de8                rcReachRetryLimit
                0x0000000040104e00                trc_NeedRTS
 *fill*         0x0000000040104eb5        0x3 
 .text          0x0000000040104eb8      0xfe4 /home/cnlohr/esp8266/esp_iot_sdk_v1.1.0/lib/libpp.a(wdev.o)
                                       0x1244 (size before relaxing)
                0x0000000040105264                wDev_ProcessFiq
                0x0000000040105594                wDev_EnableTransmit
                0x00000000401055d8                wDev_DisableTransmit
                0x00000000401055f8                Tx_Copy2Queue
                0x0000000040105640                wDev_ProcessCollision
                0x0000000040105664                wDev_GetTxqCollisions
                0x0000000040105674                wDev_ClearTxqCollisions
                0x0000000040105690                wDev_SetWaitingQueue
                0x00000000401056dc                wDev_ClearWaitingQueue
                0x0000000040105700                wDev_SetFrameAckType
                0x0000000040105764                wDev_AppendRxBlocks
                0x00000000401058c8                wDev_AppendRxAmpduLensBlocks
                0x00000000401059b8                wDev_GetBAInfo
                0x00000000401059e8                wDevDisableRx
 .text          0x0000000040105e9c      0x1ff /home/cnlohr/esp8266/esp-open-sdk/xtensa-lx106-elf/lib/gcc/xtensa-lx106-elf/4.8.2/libgcc.a(_addsubsf3.o)
                0x0000000040105eb8                __addsf3
                0x0000000040105fa0                __subsf3
 *fill*         0x000000004010609b        0x1 
 .text          0x000000004010609c      0x15d /home/cnlohr/esp8266/esp-open-sdk/xtensa-lx106-elf/lib/gcc/xtensa-lx106-elf/4.8.2/libgcc.a(_mulsf3.o)
                0x0000000040106114                __mulsf3
 *fill*         0x00000000401061f9        0x3 
 .text          0x00000000401061fc      0x135 /home/cnlohr/esp8266/esp-open-sdk/xtensa-lx106-elf/lib/gcc/xtensa-lx106-elf/4.8.2/libgcc.a(_divsf3.o)
                0x0000000040106278                __divsf3
 *fill*         0x0000000040106331        0x3 
 .text          0x0000000040106334       0x40 /home/cnlohr/esp8266/esp-open-sdk/xtensa-lx106-elf/lib/gcc/xtensa-lx106-elf/4.8.2/libgcc.a(_fixsfsi.o)
                0x0000000040106334                __fixsfsi
 .text          0x0000000040106374       0x51 /home/cnlohr/esp8266/esp-open-sdk/xtensa-lx106-elf/lib/gcc/xtensa-lx106-elf/4.8.2/libgcc.a(_fixunssfsi.o)
                0x0000000040106374                __fixunssfsi
 *fill*         0x00000000401063c5        0x3 
 .text          0x00000000401063c8      0x29b /home/cnlohr/esp8266/esp-open-sdk/xtensa-lx106-elf/lib/gcc/xtensa-lx106-elf/4.8.2/libgcc.a(_muldf3.o)
                0x00000000401064a8                __muldf3
 *fill*         0x0000000040106663        0x1 
 .text          0x0000000040106664      0x20b /home/cnlohr/esp8266/esp-open-sdk/xtensa-lx106-elf/lib/gcc/xtensa-lx106-elf/4.8.2/libgcc.a(_divdf3.o)
                0x000000004010674c                __divdf3
 *fill*         0x000000004010686f        0x1 
 .text          0x0000000040106870       0x48 /home/cnlohr/esp8266/esp-open-sdk/xtensa-lx106-elf/lib/gcc/xtensa-lx106-elf/4.8.2/libgcc.a(_fixdfsi.o)
                0x0000000040106870                __fixdfsi
 .text          0x00000000401068b8       0xa0 /home/cnlohr/esp8266/esp-open-sdk/xtensa-lx106-elf/lib/gcc/xtensa-lx106-elf/4.8.2/libgcc.a(_truncdfsf2.o)
                0x00000000401068b8                __truncdfsf2
 .text          0x0000000040106958       0x36 /home/cnlohr/esp8266/esp-open-sdk/xtensa-lx106-elf/lib/gcc/xtensa-lx106-elf/4.8.2/libgcc.a(_muldi3.o)
                0x0000000040106958                __muldi3
 *fill*         0x000000004010698e        0x2 
 .text          0x0000000040106990       0x21 /home/cnlohr/esp8266/esp-open-sdk/xtensa-lx106-elf/lib/gcc/xtensa-lx106-elf/4.8.2/libgcc.a(_popcountsi2.o)
                0x0000000040106990                __popcountsi2
 *fill*         0x00000000401069b1        0x3 
 .text          0x00000000401069b4      0x3eb /home/cnlohr/esp8266/esp-open-sdk/xtensa-lx106-elf/lib/gcc/xtensa-lx106-elf/4.8.2/libgcc.a(_divdi3.o)
                                        0x41b (size before relaxing)
                0x00000000401069b4                __divdi3
 *fill*         0x0000000040106d9f        0x1 
 .text          0x0000000040106da0      0x33a /home/cnlohr/esp8266/esp-open-sdk/xtensa-lx106-elf/lib/gcc/xtensa-lx106-elf/4.8.2/libgcc.a(_umoddi3.o)
                                        0x366 (size before relaxing)
                0x0000000040106da0                __umoddi3
 *fill*         0x00000000401070da        0x2 
 .text          0x00000000401070dc       0x5e /home/cnlohr/esp8266/esp-open-sdk/xtensa-lx106-elf/lib/gcc/xtensa-lx106-elf/4.8.2/libgcc.a(_extendsfdf2.o)
                0x00000000401070dc                __extendsfdf2
 *fill*         0x000000004010713a        0x2 
 .text          0x000000004010713c        0x6 /tmp/cc1kLqWr.ltrans2.ltrans.o
                0x000000004010713c                strcat
                0x0000000040107140                user_rf_pre_init
 *fill*         0x0000000040107142        0x0 
 *fill*         0x0000000040107142        0x0 
 *fill*         0x0000000040107142        0x0 
 *fill*         0x0000000040107142        0x0 
 *fill*         0x0000000040107142        0x0 
 *fill*         0x0000000040107142        0x0 
 *fill*         0x0000000040107142        0x0 
 *fill*         0x0000000040107142        0x2 
 .text          0x0000000040107144       0x25 /home/cnlohr/esp8266/esp_iot_sdk_v1.1.0/lib/libnet80211.a(ieee80211_hostap.o)
 *fill*         0x0000000040107169        0x0 
 *fill*         0x0000000040107169        0x0 
 *fill*         0x0000000040107169        0x0 
 *fill*         0x0000000040107169        0x3 
 .text          0x000000004010716c       0x11 /home/cnlohr/esp8266/esp_iot_sdk_v1.1.0/lib/libwpa.a(wpa_auth.o)
 *fill*         0x000000004010717d        0x0 
 *fill*         0x000000004010717d        0x3 
 .text          0x0000000040107180        0x2 /home/cnlohr/esp8266/esp_iot_sdk_v1.1.0/lib/libphy.a(phy_chip_v6.o)
                0x0000000040107180                ram_tx_mac_disable
 *fill*         0x0000000040107182        0x0 
 *fill*         0x0000000040107182        0x0 
 *fill*         0x0000000040107182        0x0 
 *fill*         0x0000000040107182        0x0 
 *fill*         0x0000000040107182        0x0 
 *fill*         0x0000000040107182        0x2 
 .text          0x0000000040107184       0x64 /home/cnlohr/esp8266/esp-open-sdk/xtensa-lx106-elf/lib/gcc/xtensa-lx106-elf/4.8.2/libgcc.a(_divsi3.o)
                0x0000000040107184                __divsi3
 .text          0x00000000401071e8       0x49 /home/cnlohr/esp8266/esp-open-sdk/xtensa-lx106-elf/lib/gcc/xtensa-lx106-elf/4.8.2/libgcc.a(_modsi3.o)
                0x00000000401071e8                __modsi3
 *fill*         0x0000000040107231        0x3 
 .text          0x0000000040107234       0x4c /home/cnlohr/esp8266/esp-open-sdk/xtensa-lx106-elf/lib/gcc/xtensa-lx106-elf/4.8.2/libgcc.a(_udivsi3.o)
                0x0000000040107234                __udivsi3
 .text          0x0000000040107280       0x39 /home/cnlohr/esp8266/esp-open-sdk/xtensa-lx106-elf/lib/gcc/xtensa-lx106-elf/4.8.2/libgcc.a(_umodsi3.o)
                0x0000000040107280                __umodsi3
 *fill*         0x00000000401072b9        0x3 
 .text          0x00000000401072bc       0x18 /home/cnlohr/esp8266/esp-open-sdk/xtensa-lx106-elf/lib/gcc/xtensa-lx106-elf/4.8.2/libgcc.a(_ashrdi3.o)
                0x00000000401072bc                __ashrdi3
 *fill*         0x00000000401072d4        0x0 
 *fill*         0x00000000401072d4        0x0 
 *fill*         0x00000000401072d4        0x0 
 *fill*         0x00000000401072d4        0x0 
 .text          0x00000000401072d4       0x44 /home/cnlohr/esp8266/esp-open-sdk/xtensa-lx106-elf/lib/gcc/xtensa-lx106-elf/4.8.2/libgcc.a(_floatsisf.o)
                0x00000000401072d4                __floatunsisf
                0x00000000401072dc                __floatsisf
 *fill*         0x0000000040107318        0x0 
 *fill*         0x0000000040107318        0x0 
 .text          0x0000000040107318       0x36 /home/cnlohr/esp8266/esp-open-sdk/xtensa-lx106-elf/lib/gcc/xtensa-lx106-elf/4.8.2/libgcc.a(_floatsidf.o)
                0x0000000040107318                __floatunsidf
                0x0000000040107320                __floatsidf
 *fill*         0x000000004010734e        0x0 
 *fill*         0x000000004010734e        0x0 
 *fill*         0x000000004010734e        0x0 
 *fill*         0x000000004010734e        0x0 
 *fill*         0x000000004010734e        0x2 
 .text          0x0000000040107350       0x48 /home/cnlohr/esp8266/esp-open-sdk/xtensa-lx106-elf/lib/gcc/xtensa-lx106-elf/4.8.2/libgcc.a(_umulsidi3.o)
                0x0000000040107350                __umulsidi3
 *(.fini.literal)
 *(.fini)
 *(.gnu.version)
                0x0000000040107398                _text_end = ABSOLUTE (.)
                0x0000000040107398                _etext = .

.lit4           0x0000000040107398        0x0
                0x0000000040107398                _lit4_start = ABSOLUTE (.)
 *(*.lit4)
 *(.lit4.*)
 *(.gnu.linkonce.lit4.*)
                0x0000000040107398                _lit4_end = ABSOLUTE (.)

.irom0.text     0x0000000040240000    0x2993f
                0x0000000040240000                _irom0_text_start = ABSOLUTE (.)
 *(.irom0.literal .irom.literal .irom.text.literal .irom0.text .irom.text)
 .irom0.literal
                0x0000000040240000      0x1f8 /tmp/cc1kLqWr.ltrans0.ltrans.o
                                        0x3a0 (size before relaxing)
 .irom0.literal
                0x00000000402401f8      0x128 /tmp/cc1kLqWr.ltrans1.ltrans.o
                                        0x3a4 (size before relaxing)
 .irom0.literal
                0x0000000040240320       0x9c /tmp/cc1kLqWr.ltrans2.ltrans.o
                                        0x2c0 (size before relaxing)
 .irom0.text    0x00000000402403bc      0xf82 /tmp/cc1kLqWr.ltrans0.ltrans.o
                                       0x1022 (size before relaxing)
                0x00000000402403d0                MyTimer
                0x00000000402403dc                uart1_write_char$1378
                0x0000000040240414                httpserver_connectcb
                0x0000000040240478                URLDecode
                0x0000000040240514                HTTPClose
                0x000000004024053c                FillRaw
                0x00000000402405dc                ConfigI2C
                0x0000000040240608                HTTPHandleInternalCallback
                0x000000004024082c                my_atoi
                0x0000000040240894                uart_config$1387
                0x0000000040240994                uart0_sendStr
                0x00000000402409bc                issue_command
                0x0000000040241264                procTask$part$0$1540
 *fill*         0x000000004024133e        0x2 
 .irom0.text    0x0000000040241340      0xbb4 /tmp/cc1kLqWr.ltrans1.ltrans.o
                                        0xbf4 (size before relaxing)
                0x0000000040241340                procTask$1535
                0x0000000040241af0                http_recvcb$1959
 .irom0.text    0x0000000040241ef4      0x567 /tmp/cc1kLqWr.ltrans2.ltrans.o
                                        0x5b3 (size before relaxing)
                0x0000000040241ef4                user_init
 *fill*         0x000000004024245b        0x1 
 .irom0.text    0x000000004024245c      0x56a /home/cnlohr/esp8266/esp_iot_sdk_v1.1.0/lib/libmain.a(eagle_lib.o)
                                        0x57a (size before relaxing)
                0x0000000040242460                divide
                0x000000004024249c                skip_atoi
                0x000000004024261c                ets_vsnprintf
                0x000000004024297c                ets_vsprintf
                0x00000000402429a0                ets_sprintf
 *fill*         0x00000000402429c6        0x2 
 .irom0.text    0x00000000402429c8       0x54 /home/cnlohr/esp8266/esp_iot_sdk_v1.1.0/lib/libmain.a(mem_manager.o)
                                         0x58 (size before relaxing)
                0x00000000402429cc                xPortGetFreeHeapSize
 .irom0.text    0x0000000040242a1c      0x225 /home/cnlohr/esp8266/esp_iot_sdk_v1.1.0/lib/libmain.a(spi_overlap.o)
                                        0x23d (size before relaxing)
                0x0000000040242a30                overlap_hspi_init
                0x0000000040242acc                overlap_hspi_deinit
                0x0000000040242b6c                overlap_hspi_read_data
 *fill*         0x0000000040242c41        0x3 
 .irom0.text    0x0000000040242c44     0x25dd /home/cnlohr/esp8266/esp_iot_sdk_v1.1.0/lib/libmain.a(user_interface.o)
                                       0x2c71 (size before relaxing)
                0x0000000040242c48                system_set_os_print
                0x0000000040242c58                system_get_os_print
                0x0000000040242e28                system_pp_recycle_rx_pkt
                0x0000000040242e3c                system_adc_read
                0x0000000040242e54                system_get_vdd33
                0x0000000040242e70                system_restart
                0x0000000040242ed4                system_restore
                0x0000000040242f18                system_get_flash_size_map
                0x0000000040242f3c                system_get_boot_version
                0x0000000040242f74                system_get_test_result
                0x0000000040242f98                system_get_userbin_addr
                0x0000000040243030                system_get_boot_mode
                0x0000000040243060                system_restart_enhance
                0x0000000040243164                system_upgrade_userbin_set
                0x00000000402431ac                system_upgrade_userbin_check
                0x00000000402431ec                system_upgrade_flag_set
                0x0000000040243200                system_upgrade_flag_check
                0x0000000040243224                system_upgrade_reboot
                0x0000000040243328                system_deep_sleep
                0x0000000040243388                system_deep_sleep_set_option
                0x00000000402433a4                system_phy_set_max_tpw
                0x00000000402433b8                system_phy_set_tpw_via_vdd33
                0x00000000402433cc                system_phy_set_rfoption
                0x00000000402433e4                system_update_cpu_freq
                0x0000000040243440                system_get_cpu_freq
                0x0000000040243458                system_overclock
                0x0000000040243484                system_restoreclock
                0x00000000402434b8                system_timer_reinit
                0x00000000402434d4                system_relative_time
                0x00000000402434f8                system_station_got_ip_set
                0x0000000040243604                system_print_meminfo
                0x0000000040243664                system_get_free_heap_size
                0x0000000040243680                system_get_chip_id
                0x00000000402436a4                system_rtc_clock_cali_proc
                0x00000000402436b8                system_get_rtc_time
                0x00000000402436cc                system_mktime
                0x000000004024379c                system_init_done_cb
                0x00000000402437a8                system_get_rst_info
                0x00000000402437b0                wifi_softap_dhcps_start
                0x00000000402437f8                wifi_softap_dhcps_stop
                0x000000004024383c                wifi_softap_dhcps_status
                0x0000000040243844                wifi_station_dhcpc_start
                0x0000000040243898                wifi_station_dhcpc_stop
                0x00000000402438dc                wifi_station_dhcpc_status
                0x000000004024391c                wifi_get_opmode
                0x0000000040243930                wifi_get_opmode_default
                0x00000000402439ac                wifi_get_broadcast_if
                0x00000000402439e8                wifi_set_broadcast_if
                0x0000000040243ad8                wifi_set_opmode
                0x0000000040243aec                wifi_set_opmode_current
                0x0000000040243b00                system_get_checksum
                0x0000000040243bb4                wifi_param_save_protect
                0x0000000040243d50                wifi_station_get_config
                0x0000000040243d64                wifi_station_get_config_default
                0x0000000040243d84                wifi_station_get_ap_info
                0x0000000040243e40                wifi_station_ap_number_set
                0x00000000402440b8                wifi_station_set_config
                0x00000000402440cc                wifi_station_set_config_current
                0x00000000402440e0                wifi_station_get_current_ap_id
                0x00000000402440f4                wifi_station_ap_check
                0x000000004024412c                wifi_station_ap_change
                0x0000000040244220                wifi_station_scan
                0x000000004024426c                wifi_station_get_auto_connect
                0x0000000040244280                wifi_station_set_auto_connect
                0x00000000402442bc                wifi_station_connect
                0x0000000040244350                wifi_station_disconnect
                0x00000000402443f0                wifi_station_get_connect_status
                0x0000000040244420                wifi_station_set_reconnect_policy
                0x0000000040244438                wifi_station_get_reconnect_policy
                0x0000000040244440                wifi_station_get_rssi
                0x0000000040244484                wifi_softap_cacl_mac
                0x00000000402444f4                wifi_softap_set_default_ssid
                0x0000000040244678                wifi_softap_get_config
                0x000000004024468c                wifi_softap_get_config_default
                0x00000000402448e4                wifi_softap_set_config
                0x00000000402448f8                wifi_softap_set_config_current
                0x000000004024490c                wifi_softap_set_station_info
                0x000000004024497c                wifi_softap_get_station_info
                0x0000000040244a18                wifi_softap_free_station_info
                0x0000000040244a4c                wifi_softap_get_station_num
                0x0000000040244aa0                wifi_softap_deauth
                0x0000000040244b5c                wifi_get_phy_mode
                0x0000000040244b68                wifi_set_phy_mode
                0x0000000040244c10                wifi_set_sleep_type
                0x0000000040244c30                wifi_get_sleep_type
                0x0000000040244c48                wifi_get_channel
                0x0000000040244c60                wifi_set_channel
                0x0000000040244c90                wifi_promiscuous_set_mac
                0x0000000040244cf4                wifi_promiscuous_enable
                0x0000000040244dd8                wifi_set_promiscuous_rx_cb
                0x0000000040244dfc                wifi_get_ip_info
                0x0000000040244ed4                wifi_set_ip_info
                0x0000000040244f88                wifi_get_macaddr
                0x0000000040244fe8                wifi_set_macaddr
                0x00000000402450a4                wifi_status_led_install
                0x00000000402450e4                wifi_status_led_uninstall
                0x0000000040245108                wifi_set_status_led_output_level
                0x000000004024511c                wifi_set_event_handler_cb
                0x0000000040245130                system_os_task
                0x0000000040245174                system_uart_swap
                0x00000000402451ec                system_uart_de_swap
                0x000000004024521c                system_get_sdk_version
 *fill*         0x0000000040245221        0x3 
 .irom0.text    0x0000000040245224      0x601 /home/cnlohr/esp8266/esp_iot_sdk_v1.1.0/lib/libmain.a(app_main.o)
                                        0x79d (size before relaxing)
                0x00000000402453e0                wdt_init
                0x000000004024546c                user_uart_wait_tx_fifo_empty
 *fill*         0x0000000040245825        0x3 
 .irom0.text    0x0000000040245828      0x2d2 /home/cnlohr/esp8266/esp_iot_sdk_v1.1.0/lib/libmain.a(eagle_lwip_if.o)
                                        0x36e (size before relaxing)
                0x00000000402458e4                eagle_lwip_if_alloc
                0x0000000040245a7c                eagle_lwip_if_free
                0x0000000040245ad8                eagle_lwip_getif
 *fill*         0x0000000040245afa        0x2 
 .irom0.text    0x0000000040245afc      0x34b /home/cnlohr/esp8266/esp_iot_sdk_v1.1.0/lib/libnet80211.a(ieee80211.o)
                                        0x3e7 (size before relaxing)
                0x0000000040245b94                ieee80211_ifattach
                0x0000000040245be4                ieee80211_mhz2ieee
                0x0000000040245c3c                ieee80211_chan2ieee
                0x0000000040245c60                ieee80211_ieee2mhz
                0x0000000040245c98                ieee80211_find_channel
                0x0000000040245cc0                ieee80211_find_channel_byieee
                0x0000000040245d0c                wifi_mode_set
 *fill*         0x0000000040245e47        0x1 
 .irom0.text    0x0000000040245e48       0xc7 /home/cnlohr/esp8266/esp_iot_sdk_v1.1.0/lib/libnet80211.a(ieee80211_crypto.o)
                                         0xcf (size before relaxing)
                0x0000000040245e48                ieee80211_crypto_attach
                0x0000000040245e4c                ieee80211_crypto_available
                0x0000000040245e50                ieee80211_crypto_setkey
                0x0000000040245e54                ieee80211_crypto_encap
                0x0000000040245ea4                ieee80211_crypto_decap
 *fill*         0x0000000040245f0f        0x1 
 .irom0.text    0x0000000040245f10      0xf92 /home/cnlohr/esp8266/esp_iot_sdk_v1.1.0/lib/libnet80211.a(ieee80211_hostap.o)
                                       0x1256 (size before relaxing)
                0x0000000040246264                ieee80211_hostap_attach
                0x000000004024632c                hostap_handle_timer
                0x00000000402463c4                hostap_input
                0x0000000040246ca8                wifi_softap_start
                0x0000000040246d9c                wifi_softap_stop
 *fill*         0x0000000040246ea2        0x2 
 .irom0.text    0x0000000040246ea4      0xa94 /home/cnlohr/esp8266/esp_iot_sdk_v1.1.0/lib/libnet80211.a(ieee80211_ht.o)
                                        0xb44 (size before relaxing)
                0x0000000040246eb4                ieee80211_ht_attach
                0x0000000040246f04                ieee80211_ht_node_init
                0x0000000040246f44                ieee80211_ht_node_cleanup
                0x0000000040246f7c                ieee80211_parse_htcap
                0x0000000040247060                ieee80211_ht_updateparams
                0x0000000040247178                ieee80211_setup_htrates
                0x000000004024724c                ieee80211_setup_basic_htrates
                0x00000000402475b0                ieee80211_add_htcap
                0x00000000402475cc                ieee80211_add_htcap_vendor
                0x00000000402476f0                ieee80211_add_htinfo
                0x000000004024770c                ieee80211_add_htinfo_vendor
 .irom0.text    0x0000000040247938      0x8e0 /home/cnlohr/esp8266/esp_iot_sdk_v1.1.0/lib/libnet80211.a(ieee80211_input.o)
                                        0x950 (size before relaxing)
                0x0000000040247938                ieee80211_deliver_data
                0x0000000040247990                ieee80211_decap
                0x0000000040247a98                ieee80211_setup_rates
                0x0000000040247b04                ieee80211_alloc_challenge
                0x0000000040247b38                ieee80211_parse_beacon
                0x0000000040247fa8                ieee80211_parse_wpa
                0x00000000402480c0                ieee80211_parse_rsn
                0x00000000402481bc                ieee80211_parse_action
                0x0000000040248214                ieee80211_setup_rateset
 .irom0.text    0x0000000040248218     0x1743 /home/cnlohr/esp8266/esp_iot_sdk_v1.1.0/lib/libnet80211.a(ieee80211_output.o)
                                       0x1983 (size before relaxing)
                0x0000000040248224                ieee80211_output_pbuf
                0x00000000402484a0                ieee80211_send_setup
                0x00000000402485d4                ieee80211_mgmt_output
                0x00000000402486c8                ieee80211_tx_mgt_cb
                0x00000000402486cc                ieee80211_send_nulldata
                0x0000000040248b24                ieee80211_add_rates
                0x0000000040248b5c                ieee80211_add_xrates
                0x0000000040248bf8                ieee80211_send_probereq
                0x0000000040248da4                ieee80211_getcapinfo
                0x0000000040248e00                ieee80211_send_mgmt
                0x0000000040249368                ieee80211_alloc_proberesp
                0x0000000040249508                ieee80211_send_proberesp
                0x0000000040249810                ieee80211_beacon_alloc
 *fill*         0x000000004024995b        0x1 
 .irom0.text    0x000000004024995c      0x147 /home/cnlohr/esp8266/esp_iot_sdk_v1.1.0/lib/libnet80211.a(ieee80211_phy.o)
                                        0x16f (size before relaxing)
                0x0000000040249960                ieee80211_get_11g_ratetable
                0x000000004024996c                ieee80211_get_ratetable
                0x0000000040249984                ieee80211_phy_init
                0x00000000402499b8                ieee80211_phy_type_get
                0x00000000402499c8                ieee80211_setup_ratetable
                0x00000000402499fc                ieee80211_compute_duration
                0x0000000040249a7c                ieee80211_dot11Rate_rix
 *fill*         0x0000000040249aa3        0x1 
 .irom0.text    0x0000000040249aa4      0x1c2 /home/cnlohr/esp8266/esp_iot_sdk_v1.1.0/lib/libnet80211.a(ieee80211_power.o)
                                        0x1f2 (size before relaxing)
                0x0000000040249aa4                ieee80211_psq_init
                0x0000000040249ac4                ieee80211_psq_cleanup
                0x0000000040249acc                ieee80211_set_tim
                0x0000000040249b0c                ieee80211_pwrsave
                0x0000000040249b78                pwrsave_flushq
                0x0000000040249c30                ieee80211_node_pwrsave
 *fill*         0x0000000040249c66        0x2 
 .irom0.text    0x0000000040249c68      0x15b /home/cnlohr/esp8266/esp_iot_sdk_v1.1.0/lib/libnet80211.a(ieee80211_proto.o)
                                        0x177 (size before relaxing)
                0x0000000040249c6c                ieee80211_proto_attach
                0x0000000040249c94                ieee80211_set_shortslottime
                0x0000000040249cb0                ieee80211_iserp_rateset
                0x0000000040249d44                ieee80211_setbasicrates
                0x0000000040249d58                ieee80211_addbasicrates
                0x0000000040249d6c                ieee80211_wme_initparams
                0x0000000040249d70                ieee80211_wme_updateparams
                0x0000000040249d74                ieee80211_mlme_connect_bss
 *fill*         0x0000000040249dc3        0x1 
 .irom0.text    0x0000000040249dc4      0xd22 /home/cnlohr/esp8266/esp_iot_sdk_v1.1.0/lib/libnet80211.a(ieee80211_scan.o)
                                        0xfe6 (size before relaxing)
                0x0000000040249dd4                ieee80211_scan_attach
                0x0000000040249e58                scan_start
                0x000000004024a0d4                scan_cancel
                0x000000004024a220                scan_add_bssid
                0x000000004024a244                scan_remove_bssid
                0x000000004024a250                scan_hidden_ssid
                0x000000004024a258                scan_add_probe_ssid
                0x000000004024a298                scan_remove_probe_ssid
                0x000000004024a3d0                scan_clear_channles
                0x000000004024a444                scan_set_desChan
                0x000000004024a450                scan_get_type
                0x000000004024a458                cannel_scan_connect_state
                0x000000004024a478                scan_connect_state
                0x000000004024a4c0                scan_check_hidden
                0x000000004024a4ec                scan_profile_check
                0x000000004024a810                scan_parse_beacon
 *fill*         0x000000004024aae6        0x2 
 .irom0.text    0x000000004024aae8      0xc47 /home/cnlohr/esp8266/esp_iot_sdk_v1.1.0/lib/libnet80211.a(ieee80211_sta.o)
                                        0xe1e (size before relaxing)
                0x000000004024ab14                sta_status_set
                0x000000004024ab5c                ieee80211_sta_new_state
                0x000000004024ae24                sta_input
                0x000000004024b198                ieee80211_parse_wmeparams
                0x000000004024b684                wifi_station_start
                0x000000004024b6f8                wifi_station_stop
 *fill*         0x000000004024b72f        0x1 
 .irom0.text    0x000000004024b730      0x1ee /home/cnlohr/esp8266/esp_iot_sdk_v1.1.0/lib/libnet80211.a(wl_chm.o)
                                        0x256 (size before relaxing)
                0x000000004024b73c                chm_init
                0x000000004024b7a4                chm_start_op
                0x000000004024b84c                chm_end_op
                0x000000004024b898                chm_set_current_channel
                0x000000004024b8c8                chm_freq2index
                0x000000004024b8f0                chm_check_same_channel
 *fill*         0x000000004024b91e        0x2 
 .irom0.text    0x000000004024b920     0x14d3 /home/cnlohr/esp8266/esp_iot_sdk_v1.1.0/lib/libnet80211.a(wl_cnx.o)
                                       0x1917 (size before relaxing)
                0x000000004024b92c                cnx_attach
                0x000000004024b96c                cnx_sta_connect_led_timer_cb
                0x000000004024b9c0                cnx_sta_connect_cmd
                0x000000004024ba7c                cnx_sta_scan_cmd
                0x000000004024bcd8                cnx_connect_timeout
                0x000000004024bd40                cnx_start_handoff_cb
                0x000000004024c194                cnx_bss_alloc
                0x000000004024c244                cnx_rc_search
                0x000000004024c30c                cnx_add_rc
                0x000000004024c408                cnx_remove_rc
                0x000000004024c56c                cnx_rc_update_rssi
                0x000000004024c5f4                cnx_rc_update_state_metric
                0x000000004024c660                cnx_rc_update_age
                0x000000004024c684                cnx_update_bss
                0x000000004024c6bc                cnx_update_bss_more
                0x000000004024c86c                cnx_sta_leave
                0x000000004024c9b0                cnx_sta_associated
                0x000000004024ca18                cnx_node_alloc
                0x000000004024ca78                cnx_node_remove
                0x000000004024caf0                cnx_node_search
                0x000000004024cb58                cnx_node_leave
                0x000000004024cc40                cnx_node_join
 *fill*         0x000000004024cdf3        0x1 
 .irom0.text    0x000000004024cdf4      0x161 /home/cnlohr/esp8266/esp_iot_sdk_v1.1.0/lib/libnet80211.a(ieee80211_action.o)
                                        0x181 (size before relaxing)
                0x000000004024ce04                ieee80211_send_action_register
                0x000000004024ce38                ieee80211_send_action_unregister
                0x000000004024ce4c                ieee80211_send_action
                0x000000004024ceb0                ieee80211_recv_action_register
                0x000000004024cee4                ieee80211_recv_action_unregister
                0x000000004024cef8                ieee80211_recv_action
 *fill*         0x000000004024cf55        0x3 
 .irom0.text    0x000000004024cf58       0x4c /home/cnlohr/esp8266/esp_iot_sdk_v1.1.0/lib/libnet80211.a(ieee80211_ets.o)
                                         0x50 (size before relaxing)
                0x000000004024cf5c                ieee80211_getmgtframe
 .irom0.text    0x000000004024cfa4     0x121a /home/cnlohr/esp8266/esp_iot_sdk_v1.1.0/lib/liblwip.a(dhcp.o)
                                       0x14a6 (size before relaxing)
                0x000000004024d1b4                dhcp_coarse_tmr
                0x000000004024d1fc                dhcp_fine_tmr
                0x000000004024d424                dhcp_set_struct
                0x000000004024d448                dhcp_cleanup
                0x000000004024d46c                dhcp_start
                0x000000004024d51c                dhcp_inform
                0x000000004024d5c4                dhcp_network_changed
                0x000000004024d60c                dhcp_arp_reply
                0x000000004024d8a0                dhcp_renew
                0x000000004024daa0                dhcp_release
                0x000000004024db60                dhcp_stop
 *fill*         0x000000004024e1be        0x2 
 .irom0.text    0x000000004024e1c0      0xa17 /home/cnlohr/esp8266/esp_iot_sdk_v1.1.0/lib/liblwip.a(dhcpserver.o)
                                        0xb8f (size before relaxing)
                0x000000004024e1c0                node_insert_to_list
                0x000000004024e1dc                node_remove_from_list
                0x000000004024e924                dhcps_start
                0x000000004024e9a4                dhcps_stop
                0x000000004024ea0c                wifi_softap_set_dhcps_lease
                0x000000004024eb28                dhcps_coarse_tmr
                0x000000004024eb94                wifi_softap_set_dhcps_offer_option
 *fill*         0x000000004024ebd7        0x1 
 .irom0.text    0x000000004024ebd8      0x59f /home/cnlohr/esp8266/esp_iot_sdk_v1.1.0/lib/liblwip.a(dns.o)
                                        0x64f (size before relaxing)
                0x000000004024ebe4                dns_init
                0x000000004024ec38                dns_setserver
                0x000000004024ec64                dns_getserver
                0x000000004024f120                dns_gethostbyname
 *fill*         0x000000004024f177        0x1 
 .irom0.text    0x000000004024f178      0x8d2 /home/cnlohr/esp8266/esp_iot_sdk_v1.1.0/lib/liblwip.a(espconn.o)
                                        0x9ae (size before relaxing)
                0x000000004024f178                espconn_copy_partial
                0x000000004024f208                espconn_list_creat
                0x000000004024f228                espconn_list_delete
                0x000000004024f250                espconn_pbuf_create
                0x000000004024f26c                espconn_pbuf_delete
                0x000000004024f294                espconn_find_connection
                0x000000004024f334                espconn_connect
                0x000000004024f418                espconn_create
                0x000000004024f460                espconn_sent
                0x000000004024f500                espconn_tcp_get_wnd
                0x000000004024f524                espconn_tcp_set_wnd
                0x000000004024f540                espconn_tcp_get_max_con
                0x000000004024f550                espconn_tcp_set_max_con
                0x000000004024f568                espconn_tcp_get_max_con_allow
                0x000000004024f590                espconn_tcp_set_max_con_allow
                0x000000004024f5c4                espconn_regist_sentcb
                0x000000004024f5d0                espconn_regist_write_finish
                0x000000004024f5e8                espconn_regist_connectcb
                0x000000004024f5f8                espconn_regist_recvcb
                0x000000004024f604                espconn_regist_reconcb
                0x000000004024f614                espconn_regist_disconcb
                0x000000004024f628                espconn_get_connection_info
                0x000000004024f6f4                espconn_accept
                0x000000004024f73c                espconn_regist_time
                0x000000004024f780                espconn_disconnect
                0x000000004024f7b8                espconn_get_packet_info
                0x000000004024f848                espconn_set_opt
                0x000000004024f8a0                espconn_clear_opt
                0x000000004024f900                espconn_set_keepalive
                0x000000004024f96c                espconn_get_keepalive
                0x000000004024f9dc                espconn_delete
                0x000000004024fa1c                espconn_gethostbyname
                0x000000004024fa38                espconn_dns_setserver
 *fill*         0x000000004024fa4a        0x2 
 .irom0.text    0x000000004024fa4c      0xe64 /home/cnlohr/esp8266/esp_iot_sdk_v1.1.0/lib/liblwip.a(espconn_tcp.o)
                                       0x1104 (size before relaxing)
                0x000000004024fadc                espconn_kill_oldest_pcb
                0x000000004024fb48                espconn_kill_pcb
                0x000000004024fbc0                espconn_find_current_pcb
                0x000000004024fe88                espconn_tcp_sent
                0x000000004024ff40                espconn_tcp_disconnect
                0x000000004024ffc0                espconn_recv_hold
                0x0000000040250004                espconn_recv_unhold
                0x0000000040250100                espconn_tcp_write
                0x0000000040250324                espconn_tcp_client
                0x0000000040250764                espconn_tcp_server
                0x000000004025080c                espconn_tcp_delete
                0x0000000040250894                espconn_init
 .irom0.text    0x00000000402508b0      0x46e /home/cnlohr/esp8266/esp_iot_sdk_v1.1.0/lib/liblwip.a(espconn_udp.o)
                                        0x56e (size before relaxing)
                0x0000000040250900                espconn_udp_sent
                0x0000000040250b68                espconn_udp_disconnect
                0x0000000040250ba0                espconn_udp_server
                0x0000000040250c04                espconn_igmp_leave
                0x0000000040250c24                espconn_igmp_join
                0x0000000040250c48                espconn_mdns_enable
                0x0000000040250c60                espconn_mdns_disable
                0x0000000040250c78                espconn_mdns_set_hostname
                0x0000000040250c90                espconn_mdns_get_hostname
                0x0000000040250ca4                espconn_mdns_set_servername
                0x0000000040250cb8                espconn_mdns_get_servername
                0x0000000040250ccc                espconn_mdns_server_register
                0x0000000040250ce0                espconn_mdns_server_unregister
                0x0000000040250cf8                espconn_mdns_close
                0x0000000040250d0c                espconn_mdns_init
 *fill*         0x0000000040250d1e        0x2 
 .irom0.text    0x0000000040250d20      0x8bf /home/cnlohr/esp8266/esp_iot_sdk_v1.1.0/lib/liblwip.a(etharp.o)
                                        0x9a7 (size before relaxing)
                0x0000000040250d54                etharp_tmr
                0x0000000040250f74                etharp_cleanup_netif
                0x0000000040250fb0                etharp_find_addr
                0x0000000040251208                etharp_output
                0x0000000040251320                etharp_query
                0x0000000040251544                etharp_request
                0x0000000040251568                ethernet_input
 *fill*         0x00000000402515df        0x1 
 .irom0.text    0x00000000402515e0      0x5e9 /home/cnlohr/esp8266/esp_iot_sdk_v1.1.0/lib/liblwip.a(igmp.o)
                                        0x690 (size before relaxing)
                0x00000000402515ec                igmp_init
                0x00000000402515fc                igmp_start
                0x0000000040251638                igmp_stop
                0x0000000040251698                igmp_report_groups
                0x00000000402516c8                igmp_lookfor_group
                0x0000000040251780                igmp_input
                0x00000000402518d8                igmp_joingroup
                0x0000000040251984                igmp_leavegroup
                0x0000000040251a2c                igmp_tmr
 *fill*         0x0000000040251bc9        0x3 
 .irom0.text    0x0000000040251bcc       0x30 /home/cnlohr/esp8266/esp_iot_sdk_v1.1.0/lib/liblwip.a(init.o)
                                         0x50 (size before relaxing)
                0x0000000040251bd0                lwip_init
 .irom0.text    0x0000000040251bfc      0x390 /home/cnlohr/esp8266/esp_iot_sdk_v1.1.0/lib/liblwip.a(ip_addr.o)
                                        0x3b8 (size before relaxing)
                0x0000000040251bfc                ip4_addr_isbroadcast
                0x0000000040251c28                ip4_addr_netmask_valid
                0x0000000040251c6c                ipaddr_addr
                0x0000000040251c88                ipaddr_aton
                0x0000000040251eb4                ipaddr_ntoa
                0x0000000040251ec8                ipaddr_ntoa_r
 .irom0.text    0x0000000040251f8c      0x595 /home/cnlohr/esp8266/esp_iot_sdk_v1.1.0/lib/liblwip.a(ip.o)
                                        0x641 (size before relaxing)
                0x0000000040251f8c                ip_route
                0x0000000040252008                ip_router
                0x0000000040252084                ip_input
                0x00000000402522e8                ip_output_if
                0x0000000040252304                ip_output_if_opt
                0x00000000402524e8                ip_output
 *fill*         0x0000000040252521        0x3 
 .irom0.text    0x0000000040252524      0xb71 /home/cnlohr/esp8266/esp_iot_sdk_v1.1.0/lib/liblwip.a(mdns.o)
                                        0xd79 (size before relaxing)
                0x0000000040252e8c                mdns_set_servername
                0x0000000040252ebc                mdns_get_servername
                0x0000000040252ed4                mdns_server_unregister
                0x0000000040252f0c                mdns_server_register
                0x0000000040252f5c                mdns_reg
                0x0000000040252fb4                mdns_init
 *fill*         0x0000000040253095        0x3 
 .irom0.text    0x0000000040253098      0x27d /home/cnlohr/esp8266/esp_iot_sdk_v1.1.0/lib/liblwip.a(netif.o)
                                        0x2c9 (size before relaxing)
                0x0000000040253098                netif_init
                0x00000000402530a0                netif_add
                0x0000000040253108                netif_set_addr
                0x0000000040253130                netif_remove
                0x000000004025318c                netif_find
                0x00000000402531c8                netif_set_ipaddr
                0x0000000040253230                netif_set_gw
                0x0000000040253240                netif_set_netmask
                0x0000000040253250                netif_set_default
                0x0000000040253258                netif_set_up
                0x0000000040253294                netif_set_down
                0x00000000402532b8                netif_set_link_up
                0x0000000040253304                netif_set_link_down
 *fill*         0x0000000040253315        0x3 
 .irom0.text    0x0000000040253318      0x622 /home/cnlohr/esp8266/esp_iot_sdk_v1.1.0/lib/liblwip.a(pbuf.o)
                                        0x66a (size before relaxing)
                0x0000000040253318                pbuf_alloc
                0x0000000040253468                pbuf_realloc
                0x00000000402534b0                pbuf_header
                0x000000004025351c                pbuf_free
                0x0000000040253594                pbuf_clen
                0x00000000402535ac                pbuf_ref
                0x00000000402535b8                pbuf_cat
                0x00000000402535e4                pbuf_chain
                0x0000000040253600                pbuf_dechain
                0x000000004025363c                pbuf_copy
                0x00000000402536e0                pbuf_copy_partial
                0x0000000040253768                pbuf_take
                0x00000000402537cc                pbuf_coalesce
                0x0000000040253800                pbuf_get_at
                0x0000000040253828                pbuf_memcmp
                0x000000004025389c                pbuf_memfind
                0x00000000402538f0                pbuf_strstr
 *fill*         0x000000004025393a        0x2 
 .irom0.text    0x000000004025393c      0x1df /home/cnlohr/esp8266/esp_iot_sdk_v1.1.0/lib/liblwip.a(raw.o)
                                        0x233 (size before relaxing)
                0x0000000040253944                raw_input
                0x00000000402539cc                raw_bind
                0x00000000402539dc                raw_connect
                0x00000000402539ec                raw_recv
                0x00000000402539f4                raw_sendto
                0x0000000040253a90                raw_send
                0x0000000040253aa4                raw_remove
                0x0000000040253ad8                raw_new
 *fill*         0x0000000040253b1b        0x1 
 .irom0.text    0x0000000040253b1c     0x10a9 /home/cnlohr/esp8266/esp_iot_sdk_v1.1.0/lib/liblwip.a(tcp_in.o)
                                       0x12ad (size before relaxing)
                0x0000000040253b20                tcp_input
 *fill*         0x0000000040254bc5        0x3 
 .irom0.text    0x0000000040254bc8      0xa47 /home/cnlohr/esp8266/esp_iot_sdk_v1.1.0/lib/liblwip.a(tcp.o)
                                        0xb83 (size before relaxing)
                0x0000000040254bcc                tcp_tmr
                0x0000000040254bf0                tcp_close
                0x0000000040254c14                tcp_shutdown
                0x0000000040254c70                tcp_abandon
                0x0000000040254d04                tcp_abort
                0x0000000040254d1c                tcp_bind
                0x0000000040254dac                tcp_listen_with_backlog
                0x0000000040254e60                tcp_update_rcv_ann_wnd
                0x0000000040254ea4                tcp_recved
                0x0000000040254f00                tcp_connect
                0x0000000040255010                tcp_slowtmr
                0x0000000040255288                tcp_fasttmr
                0x0000000040255304                tcp_segs_free
                0x0000000040255320                tcp_seg_free
                0x0000000040255348                tcp_setprio
                0x0000000040255350                tcp_recv_null
                0x0000000040255408                tcp_alloc
                0x00000000402554e0                tcp_new
                0x00000000402554f4                tcp_arg
                0x00000000402554f8                tcp_recv
                0x0000000040255500                tcp_sent
                0x0000000040255508                tcp_err
                0x0000000040255510                tcp_accept
                0x0000000040255514                tcp_poll
                0x000000004025551c                tcp_pcb_purge
                0x0000000040255564                tcp_pcb_remove
                0x00000000402555cc                tcp_next_iss
                0x00000000402555dc                tcp_eff_send_mss
 *fill*         0x000000004025560f        0x1 
 .irom0.text    0x0000000040255610      0xea4 /home/cnlohr/esp8266/esp_iot_sdk_v1.1.0/lib/liblwip.a(tcp_out.o)
                                        0xfb8 (size before relaxing)
                0x0000000040255710                tcp_send_fin
                0x00000000402558fc                tcp_write
                0x0000000040255c34                tcp_enqueue_flags
                0x0000000040255d18                tcp_send_empty_ack
                0x0000000040255dac                tcp_output
                0x00000000402560b0                tcp_rst
                0x00000000402561f8                tcp_rexmit_rto
                0x0000000040256234                tcp_rexmit
                0x00000000402562e0                tcp_rexmit_fast
                0x0000000040256338                tcp_keepalive
                0x00000000402563b8                tcp_zero_window_probe
 .irom0.text    0x00000000402564b4      0x2a7 /home/cnlohr/esp8266/esp_iot_sdk_v1.1.0/lib/liblwip.a(timers.o)
                                        0x33b (size before relaxing)
                0x00000000402564f4                tcp_timer_needed
                0x0000000040256574                sys_timeouts_init
                0x00000000402565d0                sys_timeout
                0x0000000040256648                sys_untimeout
                0x0000000040256698                sys_check_timeouts
                0x000000004025674c                sys_restart_timeouts
 *fill*         0x000000004025675b        0x1 
 .irom0.text    0x000000004025675c      0x575 /home/cnlohr/esp8266/esp_iot_sdk_v1.1.0/lib/liblwip.a(udp.o)
                                        0x631 (size before relaxing)
                0x0000000040256760                udp_input
                0x00000000402569c0                udp_send
                0x00000000402569d4                udp_sendto
                0x0000000040256a24                udp_sendto_if
                0x0000000040256b74                udp_bind
                0x0000000040256bf0                udp_connect
                0x0000000040256c4c                udp_disconnect
                0x0000000040256c64                udp_recv
                0x0000000040256c6c                udp_remove
                0x0000000040256ca0                udp_new
 *fill*         0x0000000040256cd1        0x3 
 .irom0.text    0x0000000040256cd4      0x276 /home/cnlohr/esp8266/esp_iot_sdk_v1.1.0/lib/liblwip.a(icmp.o)
                                        0x31e (size before relaxing)
                0x0000000040256cd8                icmp_input
                0x0000000040256e8c                icmp_dest_unreach
 *fill*         0x0000000040256f4a        0x2 
 .irom0.text    0x0000000040256f4c      0x28e /home/cnlohr/esp8266/esp_iot_sdk_v1.1.0/lib/libwpa.a(ap_config.o)
                                        0x2ca (size before relaxing)
                0x0000000040256f50                hostapd_config_defaults_bss
                0x0000000040256f98                hostapd_config_defaults
                0x0000000040257004                hostapd_mac_comp
                0x000000004025701c                hostapd_mac_comp_empty
                0x0000000040257080                hostapd_setup_wpa_psk
                0x00000000402570b0                hostapd_wep_key_cmp
                0x0000000040257100                hostapd_maclist_found
                0x000000004025716c                hostapd_rate_found
                0x0000000040257188                hostapd_get_psk
 *fill*         0x00000000402571da        0x2 
 .irom0.text    0x00000000402571dc      0x250 /home/cnlohr/esp8266/esp_iot_sdk_v1.1.0/lib/libwpa.a(common.o)
                                        0x28c (size before relaxing)
                0x00000000402571dc                inc_byte_array
                0x0000000040257230                hex2byte
                0x0000000040257264                hexstr2bin
                0x00000000402572b0                wpa_get_ntp_timestamp
                0x0000000040257344                wpa_config_parse_string
 .irom0.text    0x000000004025742c       0xf1 /home/cnlohr/esp8266/esp_iot_sdk_v1.1.0/lib/libwpa.a(os_xtensa.o)
                                         0xfd (size before relaxing)
                0x0000000040257430                ets_strdup
                0x0000000040257470                os_get_time
                0x0000000040257474                r_rand
                0x0000000040257488                os_random
                0x0000000040257498                os_get_random
                0x00000000402574f4                ets_strrchr
 *fill*         0x000000004025751d        0x3 
 .irom0.text    0x0000000040257520     0x1cbb /home/cnlohr/esp8266/esp_iot_sdk_v1.1.0/lib/libwpa.a(wpa_auth.o)
                                       0x1f47 (size before relaxing)
                0x0000000040257660                wpa_auth_for_each_sta
                0x00000000402577cc                wpa_init
                0x0000000040257840                wpa_auth_sta_init
                0x0000000040257880                wpa_auth_sta_associated
                0x00000000402578fc                wpa_auth_sta_no_wpa
                0x0000000040257948                wpa_auth_sta_deinit
                0x0000000040257a24                wpa_receive
                0x0000000040257e98                __wpa_send_eapol
                0x0000000040258380                wpa_remove_ptk
                0x00000000402583cc                wpa_auth_sm_event
 *fill*         0x00000000402591db        0x1 
 .irom0.text    0x00000000402591dc      0x569 /home/cnlohr/esp8266/esp_iot_sdk_v1.1.0/lib/libwpa.a(wpa_auth_ie.o)
                                        0x5d5 (size before relaxing)
                0x00000000402592a0                wpa_write_rsn_ie
                0x00000000402593a8                wpa_auth_gen_wpa_ie
                0x000000004025942c                wpa_add_kde
                0x0000000040259498                wpa_validate_wpa_ie
                0x0000000040259698                wpa_parse_kde_ies
                0x0000000040259734                wpa_auth_uses_mfp
 *fill*         0x0000000040259745        0x3 
 .irom0.text    0x0000000040259748     0x1478 /home/cnlohr/esp8266/esp_iot_sdk_v1.1.0/lib/libwpa.a(wpa.o)
                                       0x16b4 (size before relaxing)
                0x000000004025a6ac                wpa_sm_rx_eapol
                0x000000004025a810                wpa_register
                0x000000004025a83c                wpa_set_profile
                0x000000004025a84c                wpa_set_pmk
                0x000000004025a878                wpa_set_bss
                0x000000004025aa68                pp_michael_mic_failure
                0x000000004025ab10                eapol_txcb
                0x000000004025ab98                wpa_sm_set_state
 .irom0.text    0x000000004025abc0      0x73e /home/cnlohr/esp8266/esp_iot_sdk_v1.1.0/lib/libwpa.a(wpa_common.o)
                                        0x7ca (size before relaxing)
                0x000000004025ad08                wpa_parse_wpa_ie_rsn
                0x000000004025ae9c                wpa_parse_wpa_ie_wpa
                0x000000004025b028                wpa_eapol_key_mic
                0x000000004025b068                wpa_compare_rsn_ie
                0x000000004025b090                wpa_pmk_to_ptk
                0x000000004025b180                rsn_pmkid
                0x000000004025b1b4                wpa_cipher_key_len
                0x000000004025b1d8                wpa_cipher_to_alg
                0x000000004025b200                wpa_cipher_to_suite
                0x000000004025b254                rsn_cipher_put_suites
                0x000000004025b2b4                wpa_cipher_put_suites
 *fill*         0x000000004025b2fe        0x2 
 .irom0.text    0x000000004025b300      0x325 /home/cnlohr/esp8266/esp_iot_sdk_v1.1.0/lib/libwpa.a(wpa_ie.o)
                                        0x341 (size before relaxing)
                0x000000004025b300                wpa_parse_wpa_ie
                0x000000004025b3f4                wpa_supplicant_parse_ies
                0x000000004025b5f4                wpa_gen_wpa_ie
 *fill*         0x000000004025b625        0x3 
 .irom0.text    0x000000004025b628      0x3e7 /home/cnlohr/esp8266/esp_iot_sdk_v1.1.0/lib/libwpa.a(wpa_main.o)
                                        0x4d3 (size before relaxing)
                0x000000004025b628                ppInstallKey
                0x000000004025b7a0                wpa_config_profile
                0x000000004025b7d8                wpa_config_bss
                0x000000004025b818                wpa_config_assoc_ie
                0x000000004025b82c                dhcp_bind_check
                0x000000004025b864                eagle_auth_done
                0x000000004025b9b0                wpa_neg_complete
                0x000000004025b9d8                wpa_attach
 *fill*         0x000000004025ba0f        0x1 
 .irom0.text    0x000000004025ba10       0xd6 /home/cnlohr/esp8266/esp_iot_sdk_v1.1.0/lib/libwpa.a(wpas_glue.o)
                                         0xe2 (size before relaxing)
                0x000000004025ba84                wpa_sm_alloc_eapol
                0x000000004025bac0                wpa_sm_deauthenticate
                0x000000004025badc                wpa_sm_mlme_setprotection
                0x000000004025bae0                wpa_sm_get_beacon_ie
                0x000000004025bae4                wpa_sm_disassociate
 *fill*         0x000000004025bae6        0x2 
 .irom0.text    0x000000004025bae8       0xdf /home/cnlohr/esp8266/esp_iot_sdk_v1.1.0/lib/libwpa.a(aes-wrap.o)
                                        0x103 (size before relaxing)
                0x000000004025bae8                aes_wrap
 *fill*         0x000000004025bbc7        0x1 
 .irom0.text    0x000000004025bbc8      0x485 /home/cnlohr/esp8266/esp_iot_sdk_v1.1.0/lib/libwpa.a(aes-internal-enc.o)
                                        0x49d (size before relaxing)
                0x000000004025bbcc                rijndaelEncrypt
                0x000000004025bfe8                aes_encrypt_init
                0x000000004025c018                aes_encrypt
                0x000000004025c028                aes_encrypt_deinit
 *fill*         0x000000004025c04d        0x3 
 .irom0.text    0x000000004025c050      0x131 /home/cnlohr/esp8266/esp_iot_sdk_v1.1.0/lib/libnet80211.a(ieee80211_crypto_ccmp.o)
                                        0x135 (size before relaxing)
 *fill*         0x000000004025c181        0x3 
 .irom0.text    0x000000004025c184      0x15b /home/cnlohr/esp8266/esp_iot_sdk_v1.1.0/lib/libnet80211.a(ieee80211_crypto_tkip.o)
                                        0x167 (size before relaxing)
 *fill*         0x000000004025c2df        0x1 
 .irom0.text    0x000000004025c2e0       0x7c /home/cnlohr/esp8266/esp_iot_sdk_v1.1.0/lib/libnet80211.a(ieee80211_crypto_wep.o)
                                         0x80 (size before relaxing)
 .irom0.text    0x000000004025c35c       0xfa /home/cnlohr/esp8266/esp_iot_sdk_v1.1.0/lib/libphy.a(phy.o)
                                        0x11e (size before relaxing)
                0x000000004025c360                rf_init
                0x000000004025c37c                bb_init
                0x000000004025c394                phy_init
                0x000000004025c3c4                RFChannelSel
                0x000000004025c3e0                phy_delete_channel
                0x000000004025c3f8                phy_enable_agc
                0x000000004025c410                phy_disable_agc
                0x000000004025c428                phy_initialize_bb
                0x000000004025c440                phy_set_sense
 *fill*         0x000000004025c456        0x2 
 .irom0.text    0x000000004025c458     0x18ac /home/cnlohr/esp8266/esp_iot_sdk_v1.1.0/lib/libphy.a(phy_chip_v6_ana.o)
                                       0x1b00 (size before relaxing)
                0x000000004025c45c                ram_pbus_set_rxgain
                0x000000004025c530                ram_pbus_debugmode
                0x000000004025c5e4                ram_pbus_xpd_tx_on
                0x000000004025c650                set_rf_freq_offset
                0x000000004025c6c0                chip_v6_rxmax_ext_ana
                0x000000004025c810                ram_chip_v6_rx_init
                0x000000004025c840                tsen_meas
                0x000000004025c8ec                readvdd33
                0x000000004025ca80                txpwr_offset
                0x000000004025cb40                set_txcap_reg
                0x000000004025cbc0                ram_ana_inf_gating_en
                0x000000004025cd20                ram_restart_cal
                0x000000004025cd8c                wait_rfpll_cal_end
                0x000000004025ce10                ram_rfpll_set_freq
                0x000000004025cf14                ram_set_channel_freq
                0x000000004025d24c                chip_60_set_channel
                0x000000004025d414                chip_v6_set_chan_offset
                0x000000004025d44c                chip_v6_set_chan
                0x000000004025d4c4                chip_v6_set_chan_wakeup
                0x000000004025d544                chip_v6_rf_init
                0x000000004025d750                low_power_set
                0x000000004025d7b0                test_tout
                0x000000004025d9f4                check_data_flag
                0x000000004025da18                phy_get_check_flag
                0x000000004025db88                phy_get_vdd33
 .irom0.text    0x000000004025dd04     0x392c /home/cnlohr/esp8266/esp_iot_sdk_v1.1.0/lib/libphy.a(phy_chip_v6.o)
                                       0x3f50 (size before relaxing)
                0x000000004025dd04                ram_tx_mac_enable
                0x000000004025dd08                rtc_mem_backup
                0x000000004025dd38                rtc_mem_recovery
                0x000000004025dd68                set_cal_rxdc
                0x000000004025de1c                set_rx_gain_cal_iq
                0x000000004025e174                gen_rx_gain_table
                0x000000004025e2b4                pbus_set_rxbbgain
                0x000000004025e334                set_rx_gain_testchip_50
                0x000000004025e644                ram_get_corr_power
                0x000000004025e734                check_data_func
                0x000000004025e754                do_noisefloor_lsleep_v50
                0x000000004025e788                do_noisefloor
                0x000000004025e7f8                start_dig_rx
                0x000000004025e83c                stop_dig_rx
                0x000000004025e868                chip_v6_set_chanfreq
                0x000000004025e89c                tx_cap_init
                0x000000004025ea5c                target_power_add_backoff
                0x000000004025eaa8                tx_pwctrl_init_cal
                0x000000004025ec10                tx_atten_set_interp
                0x000000004025ee88                tx_pwctrl_init
                0x000000004025ef7c                ram_get_noisefloor
                0x000000004025ef98                get_noisefloor_sat
                0x000000004025efc8                ram_set_noise_floor
                0x000000004025f024                ram_start_noisefloor
                0x000000004025f070                read_hw_noisefloor
                0x000000004025f09c                noise_check_loop
                0x000000004025f1f8                noise_init
                0x000000004025f3f4                target_power_backoff
                0x000000004025f448                sdt_on_noise_start
                0x000000004025f4cc                chip_v6_set_chan_rx_cmp
                0x000000004025f654                chip_v6_set_chan_misc
                0x000000004025f6d8                phy_dig_spur_set
                0x000000004025fa38                phy_dig_spur_prot
                0x000000004025fc70                chip_v6_rxmax_ext_dig
                0x000000004025fcbc                chip_v6_rxmax_ext
                0x000000004025fd70                phy_bb_rx_cfg
                0x0000000040260170                uart_wait_idle
                0x00000000402601a8                phy_pbus_soc_cfg
                0x0000000040260268                phy_gpio_cfg
                0x00000000402605b0                tx_cont_en
                0x0000000040260658                tx_cont_dis
                0x00000000402606ac                tx_cont_cfg
                0x00000000402606d0                chip_v6_initialize_bb
                0x0000000040260838                periodic_cal
                0x0000000040260944                bbpll_cal
                0x00000000402609dc                periodic_cal_top
                0x0000000040260a3c                register_chipv6_phy_init_param
                0x0000000040260cdc                change_bbpll160_sleep
                0x0000000040260dcc                change_bbpll160
                0x0000000040260e04                set_crystal_uart
                0x0000000040260e78                ant_switch_init
                0x0000000040260f24                reduce_current_init
                0x0000000040260f8c                rtc_mem_check
                0x0000000040260fc4                phy_afterwake_set_rfoption
                0x0000000040260ff0                deep_sleep_set_option
                0x000000004026106c                register_chipv6_phy
                0x000000004026132c                set_dpd_bypass
                0x0000000040261384                set_rf_gain_stage10
                0x00000000402613b4                get_vdd33_offset
                0x0000000040261428                get_phy_target_power
                0x00000000402614d8                set_most_pwr_reg
                0x00000000402615ac                phy_set_most_tpw
                0x00000000402615d0                phy_vdd33_set_tpw
                0x00000000402615e8                get_adc_rand
                0x000000004026161c                phy_get_rand
 .irom0.text    0x0000000040261630     0x213c /home/cnlohr/esp8266/esp_iot_sdk_v1.1.0/lib/libphy.a(phy_chip_v6_cal.o)
                                       0x2388 (size before relaxing)
                0x0000000040261630                txbbgain2dcoindex
                0x0000000040261650                dcoindex2txbbgain
                0x0000000040261670                init_cal_dcoffset
                0x0000000040261734                set_rfanagain_dc_reg
                0x00000000402617d0                set_txdc_pbus
                0x000000004026183c                get_rf_gain_qdb
                0x0000000040261864                correct_rf_ana_gain
                0x000000004026196c                get_sar_dout
                0x0000000040261a04                cal_rf_ana_gain
                0x0000000040261adc                meas_tone_pwr_db
                0x0000000040261b4c                tx_pwr_backoff
                0x0000000040261c98                get_fcc_1m2m_pwr_offset
                0x0000000040261cd4                ram_set_txbb_atten
                0x0000000040261d68                txiq_get_mis_pwr
                0x0000000040261e0c                txiq_cover
                0x0000000040262024                ram_rfcal_txiq
                0x0000000040262290                rc_cal
                0x0000000040262450                get_target_power_offset
                0x0000000040262558                get_pwctrl_correct
                0x00000000402625b0                tx_pwctrl_cal
                0x00000000402628f0                tx_pwctrl_bg_init
                0x000000004026296c                tx_pwctrl_background
                0x0000000040262a24                read_sar_dout
                0x0000000040262a88                ram_get_fm_sar_dout
                0x0000000040262b2c                ram_cal_tos_v60
                0x0000000040262d0c                ram_get_bb_atten
                0x0000000040262d3c                ram_rfcal_txcap
                0x0000000040262f00                ram_rfcal_pwrctrl
                0x000000004026312c                ram_rxiq_get_mis
                0x00000000402632f8                ram_rxiq_cover_mg_mp
                0x000000004026349c                ram_rfcal_rxiq
                0x00000000402636a8                dpd_scale_set
                0x00000000402636f0                dpd_mem_write
 .irom0.text    0x000000004026376c      0x271 /home/cnlohr/esp8266/esp_iot_sdk_v1.1.0/lib/libphy.a(phy_chip_v6_unused.o)
                                        0x2fd (size before relaxing)
                0x000000004026376c                chip_v6_set_sense
                0x0000000040263770                chip_v6_get_sense
                0x0000000040263774                chip_v6_unset_chanfreq
                0x0000000040263780                data_collect
                0x0000000040263854                operation_test
                0x00000000402638cc                slop_wdt_feed
                0x00000000402638e0                slop_test
                0x0000000040263994                wd_reset_cnt
 *fill*         0x00000000402639dd        0x3 
 .irom0.text    0x00000000402639e0      0xd0e /home/cnlohr/esp8266/esp_iot_sdk_v1.1.0/lib/libphy.a(phy_sleep.o)
                                        0xf2e (size before relaxing)
                0x00000000402639e0                pm_usec2rtc
                0x0000000040263a14                pm_rtc2usec
                0x0000000040263a20                pm_set_sleep_cycles
                0x0000000040263a48                pm_sleep_opt
                0x0000000040263b4c                pm_wakeup_opt
                0x0000000040263b84                get_chip_version
                0x0000000040263bc4                pm_sleep_opt_bb_off
                0x0000000040263c04                pm_sleep_opt_bb_on
                0x0000000040263c50                pm_set_pll_xtal_wait_time
                0x0000000040263c98                pm_prepare_to_sleep
                0x0000000040263cbc                pm_sdio_nidle
                0x0000000040263d30                chg_lslp_mem_opt_8266
                0x0000000040263d60                pm_goto_sleep
                0x0000000040263eac                pm_wait4wakeup
                0x0000000040263ee4                pm_open_rf
                0x0000000040263f28                pm_sleep_set_mac
                0x0000000040263fac                pm_set_wakeup_mac
                0x0000000040264048                pm_check_mac_idle
                0x00000000402640a0                pm_set_sleep_btco
                0x0000000040264140                pm_set_wakeup_btco
                0x0000000040264254                pm_set_sleep_mode
                0x0000000040264324                pm_unmask_bt
                0x0000000040264388                pm_wakeup_init
                0x0000000040264590                sleep_opt_8266
                0x00000000402645b0                sleep_opt_bb_on_8266
                0x00000000402645ec                sleep_reset_analog_rtcreg_8266
 *fill*         0x00000000402646ee        0x2 
 .irom0.text    0x00000000402646f0      0x136 /home/cnlohr/esp8266/esp_iot_sdk_v1.1.0/lib/libpp.a(esf_buf.o)
                                        0x14a (size before relaxing)
                0x000000004026470c                esf_buf_setup
 *fill*         0x0000000040264826        0x2 
 .irom0.text    0x0000000040264828      0x3b5 /home/cnlohr/esp8266/esp_iot_sdk_v1.1.0/lib/libpp.a(if_hwctrl.o)
                                        0x489 (size before relaxing)
                0x000000004026482c                ic_get_addr
                0x0000000040264838                ic_set_opmode
                0x0000000040264850                ic_enable_interface
                0x00000000402648a0                ic_interface_enabled
                0x00000000402648b4                ic_disable_interface
                0x00000000402648fc                ic_is_pure_sta
                0x0000000040264918                ic_get_ptk_alg
                0x0000000040264928                ic_get_gtk_alg
                0x0000000040264938                ic_set_ptk_alg
                0x0000000040264948                ic_set_gtk_alg
                0x0000000040264958                ic_interface_is_p2p
                0x00000000402649dc                ic_set_vif
                0x0000000040264a50                ic_set_sta
                0x0000000040264aec                ic_bss_info_update
                0x0000000040264b48                ic_set_key
                0x0000000040264ba4                ic_remove_key
                0x0000000040264bb8                ic_get_rssi
 *fill*         0x0000000040264bdd        0x3 
 .irom0.text    0x0000000040264be0       0xfc /home/cnlohr/esp8266/esp_iot_sdk_v1.1.0/lib/libpp.a(lmac.o)
                                        0x114 (size before relaxing)
                0x0000000040264be4                lmacInitAc
                0x0000000040264c18                lmacInit
                0x0000000040264cc0                lmacSetRetryLimit
 .irom0.text    0x0000000040264cdc     0x1a41 /home/cnlohr/esp8266/esp_iot_sdk_v1.1.0/lib/libpp.a(pm.o)
                                       0x1efd (size before relaxing)
                0x0000000040264ce4                pm_rtc_clock_cali_proc
                0x0000000040264d1c                pm_set_sleep_time
                0x0000000040264ff8                pm_rf_is_closed
                0x0000000040265034                pm_set_sleep_type_from_upper
                0x0000000040265124                pm_get_sleep_type
                0x0000000040265310                uart_tx_flush
                0x0000000040265314                pm_suspend
                0x0000000040265544                pm_shutdown
                0x000000004026563c                pm_reset_idle_sleep
                0x000000004026567c                pm_idle_sleep
                0x000000004026568c                pm_open
                0x0000000040265780                pm_onBcnRx
                0x00000000402660f8                pm_enable_gpio_wakeup
                0x0000000040266138                pm_attach
                0x0000000040266238                pm_send_nullfunc
                0x0000000040266400                pm_is_waked
                0x0000000040266418                pm_is_open
                0x0000000040266430                pm_scan_lock
                0x0000000040266460                pm_try_scan_unlock
                0x0000000040266478                pm_force_scan_unlock
                0x000000004026653c                pm_scan_unlocked
                0x0000000040266550                pm_allow_tx
                0x0000000040266570                pm_assoc_parse
                0x0000000040266588                pm_set_addr
                0x00000000402665a8                pm_sleep_for
                0x00000000402665d8                pm_post
                0x00000000402666dc                pm_get_idle_wait_time
 *fill*         0x000000004026671d        0x3 
 .irom0.text    0x0000000040266720      0xba9 /home/cnlohr/esp8266/esp_iot_sdk_v1.1.0/lib/libpp.a(pp.o)
                                        0xda9 (size before relaxing)
                0x0000000040266728                pp_soft_wdt_init
                0x0000000040266754                pp_soft_wdt_stop
                0x0000000040266758                pp_soft_wdt_restart
                0x000000004026675c                RxNodeNum
                0x0000000040266780                TxNodeNum
                0x00000000402667a4                pp_disable_noise_timer
                0x00000000402667c8                pp_enable_noise_timer
                0x00000000402668d0                pp_noise_test
                0x00000000402668e0                reset_noise_timer
                0x0000000040266918                pp_disable_idle_timer
                0x000000004026693c                pp_enable_idle_timer
                0x0000000040266964                pp_try_enable_idle_timer
                0x000000004026699c                ppPeocessRxPktHdr
                0x0000000040266c78                ppTxPkt
                0x0000000040266d9c                ppRegisterTxCallback
                0x0000000040266dd0                pp_tx_idle_timeout
                0x0000000040267078                pp_attach
 *fill*         0x00000000402672c9        0x3 
 .irom0.text    0x00000000402672cc      0x296 /home/cnlohr/esp8266/esp_iot_sdk_v1.1.0/lib/libpp.a(rate_control.o)
                                        0x2a2 (size before relaxing)
                0x0000000040267518                RC_SetBasicRate
 *fill*         0x0000000040267562        0x2 
 .irom0.text    0x0000000040267564      0x40d /home/cnlohr/esp8266/esp_iot_sdk_v1.1.0/lib/libpp.a(trc.o)
                                        0x46d (size before relaxing)
                0x0000000040267590                rcUpdatePhyMode
                0x000000004026766c                rcAttach
                0x00000000402676b8                rcGetTrc
                0x00000000402676c0                trc_onDisconnect
                0x00000000402676c4                trc_onScanStart
                0x00000000402676e4                trc_onScanDone
                0x0000000040267704                rc_enable_trc
                0x00000000402677cc                rc_get_mask
                0x00000000402677e0                rc_disable_trc
                0x0000000040267858                rc_disable_trc_by_interface
                0x0000000040267874                rc_get_sta_trc
                0x00000000402678b4                rc_get_trc
                0x0000000040267924                rc_get_trc_by_index
                0x0000000040267944                rc_only_sta_trc
 *fill*         0x0000000040267971        0x3 
 .irom0.text    0x0000000040267974      0xa6b /home/cnlohr/esp8266/esp_iot_sdk_v1.1.0/lib/libpp.a(wdev.o)
                                        0xb9f (size before relaxing)
                0x000000004026797c                wDev_Option_Init
                0x0000000040267a4c                wDev_Enable_Beacon_Tsf
                0x0000000040267a68                wDev_Disable_Beacon_Tsf
                0x0000000040267a84                wDev_Set_Beacon_Int
                0x0000000040267a8c                wDev_Reset_TBTT
                0x0000000040267ab8                wDev_Get_Next_TBTT
                0x0000000040267d54                wDev_Initialize
                0x0000000040267dbc                wDevForceAck6M
                0x0000000040267dd8                wDev_SetMacAddress
                0x0000000040267e74                wDev_SetRxPolicy
                0x0000000040267ec8                wDev_SetBssid
                0x0000000040267fa0                wDev_ClearBssid
                0x0000000040267fd8                wDev_Insert_KeyEntry
                0x00000000402680ac                wDev_remove_KeyEntry
                0x00000000402680ec                wDev_Crypto_Conf
                0x0000000040268188                wDev_Crypto_Disable
                0x00000000402681c0                wDevEnableRx
                0x00000000402681e0                wdev_go_sniffer
                0x00000000402682bc                wdev_set_sniffer_addr
                0x0000000040268310                wdev_exit_sniffer
 *fill*         0x00000000402683df        0x0 
 *fill*         0x00000000402683df        0x0 
 *fill*         0x00000000402683df        0x0 
 *fill*         0x00000000402683df        0x1 
 .irom.text     0x00000000402683e0       0x28 /home/cnlohr/esp8266/esp_iot_sdk_v1.1.0/lib/libmain.a(mem_manager.o)
 *fill*         0x0000000040268408        0x0 
 *fill*         0x0000000040268408        0x8 
 .irom.text     0x0000000040268410      0x2b5 /home/cnlohr/esp8266/esp_iot_sdk_v1.1.0/lib/libmain.a(user_interface.o)
 *fill*         0x00000000402686c5        0x0 
 *fill*         0x00000000402686c5        0xb 
 .irom.text     0x00000000402686d0      0x174 /home/cnlohr/esp8266/esp_iot_sdk_v1.1.0/lib/libmain.a(app_main.o)
 *fill*         0x0000000040268844        0xc 
 .irom.text     0x0000000040268850       0x53 /home/cnlohr/esp8266/esp_iot_sdk_v1.1.0/lib/libmain.a(eagle_lwip_if.o)
 *fill*         0x00000000402688a3        0x0 
 *fill*         0x00000000402688a3        0xd 
 .irom.text     0x00000000402688b0       0x6a /home/cnlohr/esp8266/esp_iot_sdk_v1.1.0/lib/libnet80211.a(ieee80211.o)
 *fill*         0x000000004026891a        0x0 
 *fill*         0x000000004026891a        0x0 
 *fill*         0x000000004026891a        0x0 
 *fill*         0x000000004026891a        0x6 
 .irom.text     0x0000000040268920       0x19 /home/cnlohr/esp8266/esp_iot_sdk_v1.1.0/lib/libnet80211.a(ieee80211_ht.o)
 *fill*         0x0000000040268939        0x0 
 *fill*         0x0000000040268939        0x7 
 .irom.text     0x0000000040268940       0x27 /home/cnlohr/esp8266/esp_iot_sdk_v1.1.0/lib/libnet80211.a(ieee80211_output.o)
 *fill*         0x0000000040268967        0x0 
 *fill*         0x0000000040268967        0x0 
 *fill*         0x0000000040268967        0x0 
 *fill*         0x0000000040268967        0x0 
 *fill*         0x0000000040268967        0x9 
 .irom.text     0x0000000040268970       0x24 /home/cnlohr/esp8266/esp_iot_sdk_v1.1.0/lib/libnet80211.a(ieee80211_scan.o)
 *fill*         0x0000000040268994        0x0 
 *fill*         0x0000000040268994        0x0 
 *fill*         0x0000000040268994        0xc 
 .irom.text     0x00000000402689a0      0x107 /home/cnlohr/esp8266/esp_iot_sdk_v1.1.0/lib/libnet80211.a(wl_cnx.o)
 *fill*         0x0000000040268aa7        0x0 
 *fill*         0x0000000040268aa7        0x0 
 *fill*         0x0000000040268aa7        0x0 
 *fill*         0x0000000040268aa7        0x9 
 .irom.text     0x0000000040268ab0       0x45 /home/cnlohr/esp8266/esp_iot_sdk_v1.1.0/lib/liblwip.a(dhcpserver.o)
 *fill*         0x0000000040268af5        0x0 
 *fill*         0x0000000040268af5        0x0 
 *fill*         0x0000000040268af5        0x0 
 *fill*         0x0000000040268af5        0xb 
 .irom.text     0x0000000040268b00       0xbb /home/cnlohr/esp8266/esp_iot_sdk_v1.1.0/lib/liblwip.a(espconn_tcp.o)
 *fill*         0x0000000040268bbb        0x0 
 *fill*         0x0000000040268bbb        0x0 
 *fill*         0x0000000040268bbb        0x1 
 .irom0.text    0x0000000040268bbc      0x2b6 /home/cnlohr/esp8266/esp_iot_sdk_v1.1.0/lib/liblwip.a(inet_chksum.o)
                0x0000000040268c38                inet_chksum_pseudo
                0x0000000040268d04                inet_chksum_pseudo_partial
                0x0000000040268de8                inet_chksum
                0x0000000040268e00                inet_chksum_pbuf
 *fill*         0x0000000040268e72        0x0 
 *fill*         0x0000000040268e72        0xe 
 .irom.text     0x0000000040268e80       0x11 /home/cnlohr/esp8266/esp_iot_sdk_v1.1.0/lib/liblwip.a(ip.o)
 *fill*         0x0000000040268e91        0x0 
 *fill*         0x0000000040268e91        0xf 
 .irom.text     0x0000000040268ea0      0x102 /home/cnlohr/esp8266/esp_iot_sdk_v1.1.0/lib/liblwip.a(mdns.o)
 *fill*         0x0000000040268fa2        0x0 
 *fill*         0x0000000040268fa2        0x0 
 *fill*         0x0000000040268fa2        0x0 
 *fill*         0x0000000040268fa2        0x0 
 *fill*         0x0000000040268fa2        0x0 
 *fill*         0x0000000040268fa2        0x0 
 *fill*         0x0000000040268fa2        0x0 
 *fill*         0x0000000040268fa2        0x0 
 *fill*         0x0000000040268fa2        0x0 
 *fill*         0x0000000040268fa2        0x0 
 *fill*         0x0000000040268fa2        0x0 
 *fill*         0x0000000040268fa2        0x0 
 *fill*         0x0000000040268fa2        0x0 
 *fill*         0x0000000040268fa2        0x2 
 .irom0.text    0x0000000040268fa4        0x8 /home/cnlohr/esp8266/esp_iot_sdk_v1.1.0/lib/libwpa.a(wpa_debug.o)
                0x0000000040268fa4                eloop_cancel_timeout
                0x0000000040268fa8                eloop_register_timeout
 *fill*         0x0000000040268fac        0x0 
 *fill*         0x0000000040268fac        0x4 
 .irom.text     0x0000000040268fb0       0x57 /home/cnlohr/esp8266/esp_iot_sdk_v1.1.0/lib/libwpa.a(wpa_main.o)
 *fill*         0x0000000040269007        0x0 
 *fill*         0x0000000040269007        0x0 
 *fill*         0x0000000040269007        0x0 
 *fill*         0x0000000040269007        0x0 
 *fill*         0x0000000040269007        0x0 
 *fill*         0x0000000040269007        0x0 
 *fill*         0x0000000040269007        0x9 
 .irom.text     0x0000000040269010       0x85 /home/cnlohr/esp8266/esp_iot_sdk_v1.1.0/lib/libphy.a(phy_chip_v6_ana.o)
 *fill*         0x0000000040269095        0x0 
 *fill*         0x0000000040269095        0xb 
 .irom.text     0x00000000402690a0      0x170 /home/cnlohr/esp8266/esp_iot_sdk_v1.1.0/lib/libphy.a(phy_chip_v6.o)
 *fill*         0x0000000040269210        0x0 
 .irom.text     0x0000000040269210      0x194 /home/cnlohr/esp8266/esp_iot_sdk_v1.1.0/lib/libphy.a(phy_chip_v6_cal.o)
 *fill*         0x00000000402693a4        0xc 
 .irom.text     0x00000000402693b0       0x3d /home/cnlohr/esp8266/esp_iot_sdk_v1.1.0/lib/libphy.a(phy_chip_v6_unused.o)
 *fill*         0x00000000402693ed        0x0 
 *fill*         0x00000000402693ed        0x0 
 *fill*         0x00000000402693ed        0x0 
 *fill*         0x00000000402693ed        0x3 
 .irom.text     0x00000000402693f0       0x50 /home/cnlohr/esp8266/esp_iot_sdk_v1.1.0/lib/libpp.a(if_hwctrl.o)
 *fill*         0x0000000040269440        0x0 
 .irom.text     0x0000000040269440      0x16f /home/cnlohr/esp8266/esp_iot_sdk_v1.1.0/lib/libpp.a(lmac.o)
 *fill*         0x00000000402695af        0x0 
 *fill*         0x00000000402695af        0x1 
 .irom.text     0x00000000402695b0      0x24f /home/cnlohr/esp8266/esp_iot_sdk_v1.1.0/lib/libpp.a(pm.o)
 *fill*         0x00000000402697ff        0x0 
 *fill*         0x00000000402697ff        0x1 
 .irom.text     0x0000000040269800       0x67 /home/cnlohr/esp8266/esp_iot_sdk_v1.1.0/lib/libpp.a(pp.o)
 *fill*         0x0000000040269867        0x0 
 *fill*         0x0000000040269867        0x0 
 *fill*         0x0000000040269867        0x9 
 .irom.text     0x0000000040269870       0x4d /home/cnlohr/esp8266/esp_iot_sdk_v1.1.0/lib/libpp.a(trc.o)
 *fill*         0x00000000402698bd        0x0 
 *fill*         0x00000000402698bd        0x3 
 .irom.text     0x00000000402698c0       0x7f /home/cnlohr/esp8266/esp_iot_sdk_v1.1.0/lib/libpp.a(wdev.o)
                0x000000004026993f                _irom0_text_end = ABSOLUTE (.)
                0x00000000400047f0                PROVIDE (Cache_Read_Disable, 0x400047f0)
                0x0000000040004678                PROVIDE (Cache_Read_Enable, 0x40004678)
                0x00000000400035a0                PROVIDE (FilePacketSendReqMsgProc, 0x400035a0)
                0x000000004000368c                PROVIDE (FlashDwnLdParamCfgMsgProc, 0x4000368c)
                0x0000000040003538                PROVIDE (FlashDwnLdStartMsgProc, 0x40003538)
                0x0000000040003658                PROVIDE (FlashDwnLdStopReqMsgProc, 0x40003658)
                0x0000000040003f4c                PROVIDE (GetUartDevice, 0x40003f4c)
                0x0000000040009900                PROVIDE (MD5Final, 0x40009900)
                0x0000000040009818                PROVIDE (MD5Init, 0x40009818)
                0x0000000040009834                PROVIDE (MD5Update, 0x40009834)
                0x00000000400036c4                PROVIDE (MemDwnLdStartMsgProc, 0x400036c4)
                0x000000004000377c                PROVIDE (MemDwnLdStopReqMsgProc, 0x4000377c)
                0x00000000400036f0                PROVIDE (MemPacketSendReqMsgProc, 0x400036f0)
                0x0000000040003eac                PROVIDE (RcvMsg, 0x40003eac)
                0x000000004000b648                PROVIDE (SHA1Final, 0x4000b648)
                0x000000004000b584                PROVIDE (SHA1Init, 0x4000b584)
                0x000000004000a364                PROVIDE (SHA1Transform, 0x4000a364)
                0x000000004000b5a8                PROVIDE (SHA1Update, 0x4000b5a8)
                0x00000000400043c8                PROVIDE (SPI_read_status, 0x400043c8)
                0x0000000040004400                PROVIDE (SPI_write_status, 0x40004400)
                0x000000004000443c                PROVIDE (SPI_write_enable, 0x4000443c)
                0x000000004000448c                PROVIDE (Wait_SPI_Idle, 0x4000448c)
                0x0000000040004b44                PROVIDE (SPIEraseArea, 0x40004b44)
                0x00000000400049b4                PROVIDE (SPIEraseBlock, 0x400049b4)
                0x0000000040004984                PROVIDE (SPIEraseChip, 0x40004984)
                0x0000000040004a00                PROVIDE (SPIEraseSector, 0x40004a00)
                0x00000000400048a8                PROVIDE (SPILock, 0x400048a8)
                0x0000000040004c2c                PROVIDE (SPIParamCfg, 0x40004c2c)
                0x0000000040004b1c                PROVIDE (SPIRead, 0x40004b1c)
                0x00000000400048ec                PROVIDE (SPIReadModeCnfig, 0x400048ec)
                0x0000000040004878                PROVIDE (SPIUnlock, 0x40004878)
                0x0000000040004a4c                PROVIDE (SPIWrite, 0x40004a4c)
                0x0000000040003f58                PROVIDE (SelectSpiFunction, 0x40003f58)
                0x0000000040003cf4                PROVIDE (SendMsg, 0x40003cf4)
                0x0000000040003230                PROVIDE (UartConnCheck, 0x40003230)
                0x00000000400037a0                PROVIDE (UartConnectProc, 0x400037a0)
                0x0000000040003368                PROVIDE (UartDwnLdProc, 0x40003368)
                0x0000000040003ef4                PROVIDE (UartGetCmdLn, 0x40003ef4)
                0x000000004000381c                PROVIDE (UartRegReadProc, 0x4000381c)
                0x00000000400037ac                PROVIDE (UartRegWriteProc, 0x400037ac)
                0x0000000040003c30                PROVIDE (UartRxString, 0x40003c30)
                0x0000000040003a14                PROVIDE (Uart_Init, 0x40003a14)
                0x0000000040000010                PROVIDE (_DebugExceptionVector, 0x40000010)
                0x0000000040000070                PROVIDE (_DoubleExceptionVector, 0x40000070)
                0x0000000040000030                PROVIDE (_KernelExceptionVector, 0x40000030)
                0x0000000040000020                PROVIDE (_NMIExceptionVector, 0x40000020)
                0x00000000400000a4                PROVIDE (_ResetHandler, 0x400000a4)
                0x0000000040000080                PROVIDE (_ResetVector, 0x40000080)
                0x0000000040000050                PROVIDE (_UserExceptionVector, 0x40000050)
                0x000000004000c538                PROVIDE (__adddf3, 0x4000c538)
                0x000000004000c180                PROVIDE (__addsf3, 0x4000c180)
                0x000000004000cb94                PROVIDE (__divdf3, 0x4000cb94)
                0x000000004000ce60                PROVIDE (__divdi3, 0x4000ce60)
                0x000000004000dc88                PROVIDE (__divsi3, 0x4000dc88)
                0x000000004000cdfc                PROVIDE (__extendsfdf2, 0x4000cdfc)
                0x000000004000ccb8                PROVIDE (__fixdfsi, 0x4000ccb8)
                0x000000004000cd00                PROVIDE (__fixunsdfsi, 0x4000cd00)
                0x000000004000c4c4                PROVIDE (__fixunssfsi, 0x4000c4c4)
                0x000000004000e2f0                PROVIDE (__floatsidf, 0x4000e2f0)
                0x000000004000e2ac                PROVIDE (__floatsisf, 0x4000e2ac)
                0x000000004000e2e8                PROVIDE (__floatunsidf, 0x4000e2e8)
                0x000000004000e2a4                PROVIDE (__floatunsisf, 0x4000e2a4)
                0x000000004000c8f0                PROVIDE (__muldf3, 0x4000c8f0)
                0x0000000040000650                PROVIDE (__muldi3, 0x40000650)
                0x000000004000c3dc                PROVIDE (__mulsf3, 0x4000c3dc)
                0x000000004000c688                PROVIDE (__subdf3, 0x4000c688)
                0x000000004000c268                PROVIDE (__subsf3, 0x4000c268)
                0x000000004000cd5c                PROVIDE (__truncdfsf2, 0x4000cd5c)
                0x000000004000d310                PROVIDE (__udivdi3, 0x4000d310)
                0x000000004000e21c                PROVIDE (__udivsi3, 0x4000e21c)
                0x000000004000d770                PROVIDE (__umoddi3, 0x4000d770)
                0x000000004000e268                PROVIDE (__umodsi3, 0x4000e268)
                0x000000004000dcf0                PROVIDE (__umulsidi3, 0x4000dcf0)
                0x000000004000e388                PROVIDE (_rom_store, 0x4000e388)
                0x000000004000e328                PROVIDE (_rom_store_table, 0x4000e328)
                0x000000004000042c                PROVIDE (_start, 0x4000042c)
                0x000000004000dbe0                PROVIDE (_xtos_alloca_handler, 0x4000dbe0)
                0x0000000040000598                PROVIDE (_xtos_c_wrapper_handler, 0x40000598)
                0x0000000040000590                PROVIDE (_xtos_cause3_handler, 0x40000590)
                0x000000004000bda4                PROVIDE (_xtos_ints_off, 0x4000bda4)
                0x000000004000bd84                PROVIDE (_xtos_ints_on, 0x4000bd84)
                0x000000004000048c                PROVIDE (_xtos_l1int_handler, 0x4000048c)
                0x000000004000dbf8                PROVIDE (_xtos_p_none, 0x4000dbf8)
                0x000000004000056c                PROVIDE (_xtos_restore_intlevel, 0x4000056c)
                0x000000004000dc54                PROVIDE (_xtos_return_from_exc, 0x4000dc54)
                0x0000000040000454                PROVIDE (_xtos_set_exception_handler, 0x40000454)
                0x000000004000bd70                PROVIDE (_xtos_set_interrupt_handler, 0x4000bd70)
                0x000000004000bd28                PROVIDE (_xtos_set_interrupt_handler_arg, 0x4000bd28)
                0x000000004000dbfc                PROVIDE (_xtos_set_intlevel, 0x4000dbfc)
                0x000000004000dc18                PROVIDE (_xtos_set_min_intlevel, 0x4000dc18)
                0x0000000040000574                PROVIDE (_xtos_set_vpri, 0x40000574)
                0x000000004000dbe4                PROVIDE (_xtos_syscall_handler, 0x4000dbe4)
                0x000000004000dc44                PROVIDE (_xtos_unhandled_exception, 0x4000dc44)
                0x000000004000dc3c                PROVIDE (_xtos_unhandled_interrupt, 0x4000dc3c)
                0x00000000400092d4                PROVIDE (aes_decrypt, 0x400092d4)
                0x00000000400092e4                PROVIDE (aes_decrypt_deinit, 0x400092e4)
                0x0000000040008ea4                PROVIDE (aes_decrypt_init, 0x40008ea4)
                0x0000000040009410                PROVIDE (aes_unwrap, 0x40009410)
                0x0000000040009648                PROVIDE (base64_decode, 0x40009648)
                0x00000000400094fc                PROVIDE (base64_encode, 0x400094fc)
                0x000000004000de84                PROVIDE (bzero, 0x4000de84)
                0x0000000040000814                PROVIDE (cmd_parse, 0x40000814)
                0x0000000040000b24                PROVIDE (conv_str_decimal, 0x40000b24)
                0x0000000040000cb8                PROVIDE (conv_str_hex, 0x40000cb8)
                0x0000000040000a60                PROVIDE (convert_para_str, 0x40000a60)
                0x00000000400026d0                PROVIDE (dtm_get_intr_mask, 0x400026d0)
                0x000000004000269c                PROVIDE (dtm_params_init, 0x4000269c)
                0x00000000400026c8                PROVIDE (dtm_set_intr_mask, 0x400026c8)
                0x00000000400026dc                PROVIDE (dtm_set_params, 0x400026dc)
                0x0000000040001d14                PROVIDE (eprintf, 0x40001d14)
                0x0000000040001cb8                PROVIDE (eprintf_init_buf, 0x40001cb8)
                0x0000000040001d48                PROVIDE (eprintf_to_host, 0x40001d48)
                0x0000000040002494                PROVIDE (est_get_printf_buf_remain_len, 0x40002494)
                0x000000004000249c                PROVIDE (est_reset_printf_buf_len, 0x4000249c)
                0x0000000040002ae8                PROVIDE (ets_bzero, 0x40002ae8)
                0x0000000040002b74                PROVIDE (ets_char2xdigit, 0x40002b74)
                0x0000000040002ecc                PROVIDE (ets_delay_us, 0x40002ecc)
                0x00000000400027b8                PROVIDE (ets_enter_sleep, 0x400027b8)
                0x0000000040002578                PROVIDE (ets_external_printf, 0x40002578)
                0x0000000040002f0c                PROVIDE (ets_get_cpu_frequency, 0x40002f0c)
                0x0000000040002bcc                PROVIDE (ets_getc, 0x40002bcc)
                0x0000000040002450                PROVIDE (ets_install_external_printf, 0x40002450)
                0x000000004000242c                PROVIDE (ets_install_putc1, 0x4000242c)
                0x000000004000248c                PROVIDE (ets_install_putc2, 0x4000248c)
                0x0000000040002438                PROVIDE (ets_install_uart_printf, 0x40002438)
                0x0000000040000f74                PROVIDE (ets_intr_lock, 0x40000f74)
                0x0000000040000f80                PROVIDE (ets_intr_unlock, 0x40000f80)
                0x0000000040000f88                PROVIDE (ets_isr_attach, 0x40000f88)
                0x0000000040000f98                PROVIDE (ets_isr_mask, 0x40000f98)
                0x0000000040000fa8                PROVIDE (ets_isr_unmask, 0x40000fa8)
                0x00000000400018d4                PROVIDE (ets_memcmp, 0x400018d4)
                0x00000000400018b4                PROVIDE (ets_memcpy, 0x400018b4)
                0x00000000400018c4                PROVIDE (ets_memmove, 0x400018c4)
                0x00000000400018a4                PROVIDE (ets_memset, 0x400018a4)
                0x0000000040000e24                PROVIDE (ets_post, 0x40000e24)
                0x00000000400024cc                PROVIDE (ets_printf, 0x400024cc)
                0x0000000040002be8                PROVIDE (ets_putc, 0x40002be8)
                0x0000000040002a40                PROVIDE (ets_rtc_int_register, 0x40002a40)
                0x0000000040000e04                PROVIDE (ets_run, 0x40000e04)
                0x0000000040000dc0                PROVIDE (ets_set_idle_cb, 0x40000dc0)
                0x0000000040000fbc                PROVIDE (ets_set_user_start, 0x40000fbc)
                0x0000000040002af8                PROVIDE (ets_str2macaddr, 0x40002af8)
                0x0000000040002aa8                PROVIDE (ets_strcmp, 0x40002aa8)
                0x0000000040002a88                PROVIDE (ets_strcpy, 0x40002a88)
                0x0000000040002ac8                PROVIDE (ets_strlen, 0x40002ac8)
                0x0000000040002ab8                PROVIDE (ets_strncmp, 0x40002ab8)
                0x0000000040002a98                PROVIDE (ets_strncpy, 0x40002a98)
                0x0000000040002ad8                PROVIDE (ets_strstr, 0x40002ad8)
                0x0000000040000dd0                PROVIDE (ets_task, 0x40000dd0)
                0x0000000040002cc4                PROVIDE (ets_timer_arm, 0x40002cc4)
                0x0000000040002d40                PROVIDE (ets_timer_disarm, 0x40002d40)
                0x0000000040002d80                PROVIDE (ets_timer_done, 0x40002d80)
                0x0000000040002da8                PROVIDE (ets_timer_handler_isr, 0x40002da8)
                0x0000000040002e68                PROVIDE (ets_timer_init, 0x40002e68)
                0x0000000040002c48                PROVIDE (ets_timer_setfn, 0x40002c48)
                0x0000000040002544                PROVIDE (ets_uart_printf, 0x40002544)
                0x0000000040002f04                PROVIDE (ets_update_cpu_frequency, 0x40002f04)
                0x0000000040001f00                PROVIDE (ets_vprintf, 0x40001f00)
                0x00000000400030f0                PROVIDE (ets_wdt_disable, 0x400030f0)
                0x0000000040002fa0                PROVIDE (ets_wdt_enable, 0x40002fa0)
                0x0000000040002f34                PROVIDE (ets_wdt_get_mode, 0x40002f34)
                0x0000000040003170                PROVIDE (ets_wdt_init, 0x40003170)
                0x0000000040003158                PROVIDE (ets_wdt_restore, 0x40003158)
                0x0000000040001da0                PROVIDE (ets_write_char, 0x40001da0)
                0x000000004000091c                PROVIDE (get_first_seg, 0x4000091c)
                0x0000000040004c50                PROVIDE (gpio_init, 0x40004c50)
                0x0000000040004cf0                PROVIDE (gpio_input_get, 0x40004cf0)
                0x0000000040004dcc                PROVIDE (gpio_intr_ack, 0x40004dcc)
                0x0000000040004e28                PROVIDE (gpio_intr_handler_register, 0x40004e28)
                0x0000000040004d88                PROVIDE (gpio_intr_pending, 0x40004d88)
                0x0000000040004efc                PROVIDE (gpio_intr_test, 0x40004efc)
                0x0000000040004cd0                PROVIDE (gpio_output_set, 0x40004cd0)
                0x0000000040004d90                PROVIDE (gpio_pin_intr_state_set, 0x40004d90)
                0x0000000040004ed4                PROVIDE (gpio_pin_wakeup_disable, 0x40004ed4)
                0x0000000040004e90                PROVIDE (gpio_pin_wakeup_enable, 0x40004e90)
                0x0000000040004d5c                PROVIDE (gpio_register_get, 0x40004d5c)
                0x0000000040004d04                PROVIDE (gpio_register_set, 0x40004d04)
                0x000000004000a2cc                PROVIDE (hmac_md5, 0x4000a2cc)
                0x000000004000a160                PROVIDE (hmac_md5_vector, 0x4000a160)
                0x000000004000ba28                PROVIDE (hmac_sha1, 0x4000ba28)
                0x000000004000b8b4                PROVIDE (hmac_sha1_vector, 0x4000b8b4)
                0x0000000040004f40                PROVIDE (lldesc_build_chain, 0x40004f40)
                0x0000000040005050                PROVIDE (lldesc_num2link, 0x40005050)
                0x000000004000507c                PROVIDE (lldesc_set_owner, 0x4000507c)
                0x0000000040000fec                PROVIDE (main, 0x40000fec)
                0x00000000400097ac                PROVIDE (md5_vector, 0x400097ac)
                0x0000000040001c2c                PROVIDE (mem_calloc, 0x40001c2c)
                0x00000000400019e0                PROVIDE (mem_free, 0x400019e0)
                0x0000000040001998                PROVIDE (mem_init, 0x40001998)
                0x0000000040001b40                PROVIDE (mem_malloc, 0x40001b40)
                0x0000000040001c6c                PROVIDE (mem_realloc, 0x40001c6c)
                0x0000000040001a14                PROVIDE (mem_trim, 0x40001a14)
                0x0000000040001c58                PROVIDE (mem_zalloc, 0x40001c58)
                0x000000004000dea8                PROVIDE (memcmp, 0x4000dea8)
                0x000000004000df48                PROVIDE (memcpy, 0x4000df48)
                0x000000004000e04c                PROVIDE (memmove, 0x4000e04c)
                0x000000004000e190                PROVIDE (memset, 0x4000e190)
                0x00000000400031c0                PROVIDE (multofup, 0x400031c0)
                0x000000004000b840                PROVIDE (pbkdf2_sha1, 0x4000b840)
                0x0000000040006b08                PROVIDE (phy_get_romfuncs, 0x40006b08)
                0x0000000040000600                PROVIDE (rand, 0x40000600)
                0x000000004000dd68                PROVIDE (rc4_skip, 0x4000dd68)
                0x0000000040003d08                PROVIDE (recv_packet, 0x40003d08)
                0x0000000040000a04                PROVIDE (remove_head_space, 0x40000a04)
                0x0000000040008dd0                PROVIDE (rijndaelKeySetupDec, 0x40008dd0)
                0x0000000040009300                PROVIDE (rijndaelKeySetupEnc, 0x40009300)
                0x00000000400060c0                PROVIDE (rom_abs_temp, 0x400060c0)
                0x0000000040006b10                PROVIDE (rom_ana_inf_gating_en, 0x40006b10)
                0x0000000040007a28                PROVIDE (rom_cal_tos_v50, 0x40007a28)
                0x0000000040006f84                PROVIDE (rom_chip_50_set_channel, 0x40006f84)
                0x00000000400060d0                PROVIDE (rom_chip_v5_disable_cca, 0x400060d0)
                0x00000000400060ec                PROVIDE (rom_chip_v5_enable_cca, 0x400060ec)
                0x000000004000711c                PROVIDE (rom_chip_v5_rx_init, 0x4000711c)
                0x000000004000610c                PROVIDE (rom_chip_v5_sense_backoff, 0x4000610c)
                0x000000004000718c                PROVIDE (rom_chip_v5_tx_init, 0x4000718c)
                0x000000004000615c                PROVIDE (rom_dc_iq_est, 0x4000615c)
                0x00000000400061b8                PROVIDE (rom_en_pwdet, 0x400061b8)
                0x0000000040006238                PROVIDE (rom_get_bb_atten, 0x40006238)
                0x0000000040006260                PROVIDE (rom_get_corr_power, 0x40006260)
                0x00000000400062dc                PROVIDE (rom_get_fm_sar_dout, 0x400062dc)
                0x0000000040006394                PROVIDE (rom_get_noisefloor, 0x40006394)
                0x00000000400063b0                PROVIDE (rom_get_power_db, 0x400063b0)
                0x0000000040007268                PROVIDE (rom_i2c_readReg, 0x40007268)
                0x000000004000729c                PROVIDE (rom_i2c_readReg_Mask, 0x4000729c)
                0x00000000400072d8                PROVIDE (rom_i2c_writeReg, 0x400072d8)
                0x000000004000730c                PROVIDE (rom_i2c_writeReg_Mask, 0x4000730c)
                0x0000000040006400                PROVIDE (rom_iq_est_disable, 0x40006400)
                0x0000000040006430                PROVIDE (rom_iq_est_enable, 0x40006430)
                0x0000000040006484                PROVIDE (rom_linear_to_db, 0x40006484)
                0x00000000400065a4                PROVIDE (rom_mhz2ieee, 0x400065a4)
                0x0000000040007bf0                PROVIDE (rom_pbus_dco___SA2, 0x40007bf0)
                0x000000004000737c                PROVIDE (rom_pbus_debugmode, 0x4000737c)
                0x0000000040007410                PROVIDE (rom_pbus_enter_debugmode, 0x40007410)
                0x0000000040007448                PROVIDE (rom_pbus_exit_debugmode, 0x40007448)
                0x000000004000747c                PROVIDE (rom_pbus_force_test, 0x4000747c)
                0x00000000400074d8                PROVIDE (rom_pbus_rd, 0x400074d8)
                0x000000004000754c                PROVIDE (rom_pbus_set_rxgain, 0x4000754c)
                0x0000000040007610                PROVIDE (rom_pbus_set_txgain, 0x40007610)
                0x0000000040007648                PROVIDE (rom_pbus_workmode, 0x40007648)
                0x0000000040007688                PROVIDE (rom_pbus_xpd_rx_off, 0x40007688)
                0x00000000400076cc                PROVIDE (rom_pbus_xpd_rx_on, 0x400076cc)
                0x00000000400076fc                PROVIDE (rom_pbus_xpd_tx_off, 0x400076fc)
                0x0000000040007740                PROVIDE (rom_pbus_xpd_tx_on, 0x40007740)
                0x00000000400077a0                PROVIDE (rom_pbus_xpd_tx_on__low_gain, 0x400077a0)
                0x0000000040007804                PROVIDE (rom_phy_reset_req, 0x40007804)
                0x000000004000781c                PROVIDE (rom_restart_cal, 0x4000781c)
                0x0000000040007eb4                PROVIDE (rom_rfcal_pwrctrl, 0x40007eb4)
                0x000000004000804c                PROVIDE (rom_rfcal_rxiq, 0x4000804c)
                0x0000000040008264                PROVIDE (rom_rfcal_rxiq_set_reg, 0x40008264)
                0x0000000040008388                PROVIDE (rom_rfcal_txcap, 0x40008388)
                0x0000000040008610                PROVIDE (rom_rfcal_txiq, 0x40008610)
                0x00000000400088b8                PROVIDE (rom_rfcal_txiq_cover, 0x400088b8)
                0x0000000040008a70                PROVIDE (rom_rfcal_txiq_set_reg, 0x40008a70)
                0x0000000040007868                PROVIDE (rom_rfpll_reset, 0x40007868)
                0x0000000040007968                PROVIDE (rom_rfpll_set_freq, 0x40007968)
                0x0000000040008b6c                PROVIDE (rom_rxiq_cover_mg_mp, 0x40008b6c)
                0x0000000040006628                PROVIDE (rom_rxiq_get_mis, 0x40006628)
                0x0000000040006738                PROVIDE (rom_sar_init, 0x40006738)
                0x000000004000678c                PROVIDE (rom_set_ana_inf_tx_scale, 0x4000678c)
                0x0000000040006c50                PROVIDE (rom_set_channel_freq, 0x40006c50)
                0x00000000400067c8                PROVIDE (rom_set_loopback_gain, 0x400067c8)
                0x0000000040006830                PROVIDE (rom_set_noise_floor, 0x40006830)
                0x0000000040006550                PROVIDE (rom_set_rxclk_en, 0x40006550)
                0x0000000040008c6c                PROVIDE (rom_set_txbb_atten, 0x40008c6c)
                0x000000004000650c                PROVIDE (rom_set_txclk_en, 0x4000650c)
                0x0000000040008d34                PROVIDE (rom_set_txiq_cal, 0x40008d34)
                0x0000000040006874                PROVIDE (rom_start_noisefloor, 0x40006874)
                0x00000000400068b4                PROVIDE (rom_start_tx_tone, 0x400068b4)
                0x000000004000698c                PROVIDE (rom_stop_tx_tone, 0x4000698c)
                0x0000000040006a98                PROVIDE (rom_tx_mac_disable, 0x40006a98)
                0x0000000040006ad4                PROVIDE (rom_tx_mac_enable, 0x40006ad4)
                0x0000000040006a1c                PROVIDE (rom_txtone_linear_pwr, 0x40006a1c)
                0x00000000400078dc                PROVIDE (rom_write_rfpll_sdm, 0x400078dc)
                0x00000000400031b4                PROVIDE (roundup2, 0x400031b4)
                0x0000000040002870                PROVIDE (rtc_enter_sleep, 0x40002870)
                0x00000000400025e0                PROVIDE (rtc_get_reset_reason, 0x400025e0)
                0x00000000400029ec                PROVIDE (rtc_intr_handler, 0x400029ec)
                0x0000000040002668                PROVIDE (rtc_set_sleep_mode, 0x40002668)
                0x00000000400027a4                PROVIDE (save_rxbcn_mactime, 0x400027a4)
                0x00000000400027ac                PROVIDE (save_tsf_us, 0x400027ac)
                0x0000000040003c80                PROVIDE (send_packet, 0x40003c80)
                0x000000004000ba48                PROVIDE (sha1_prf, 0x4000ba48)
                0x000000004000a2ec                PROVIDE (sha1_vector, 0x4000a2ec)
                0x0000000040005180                PROVIDE (sip_alloc_to_host_evt, 0x40005180)
                0x00000000400058a8                PROVIDE (sip_get_ptr, 0x400058a8)
                0x0000000040005668                PROVIDE (sip_get_state, 0x40005668)
                0x000000004000567c                PROVIDE (sip_init_attach, 0x4000567c)
                0x000000004000544c                PROVIDE (sip_install_rx_ctrl_cb, 0x4000544c)
                0x000000004000545c                PROVIDE (sip_install_rx_data_cb, 0x4000545c)
                0x00000000400050fc                PROVIDE (sip_post, 0x400050fc)
                0x00000000400056c4                PROVIDE (sip_post_init, 0x400056c4)
                0x000000004000534c                PROVIDE (sip_reclaim_from_host_cmd, 0x4000534c)
                0x00000000400052c0                PROVIDE (sip_reclaim_tx_data_pkt, 0x400052c0)
                0x0000000040005808                PROVIDE (sip_send, 0x40005808)
                0x0000000040005864                PROVIDE (sip_to_host_chain_append, 0x40005864)
                0x0000000040005234                PROVIDE (sip_to_host_evt_send_done, 0x40005234)
                0x00000000400060ac                PROVIDE (slc_add_credits, 0x400060ac)
                0x0000000040005d90                PROVIDE (slc_enable, 0x40005d90)
                0x0000000040005f24                PROVIDE (slc_from_host_chain_fetch, 0x40005f24)
                0x0000000040005e94                PROVIDE (slc_from_host_chain_recycle, 0x40005e94)
                0x0000000040005c50                PROVIDE (slc_init_attach, 0x40005c50)
                0x000000004000608c                PROVIDE (slc_init_credit, 0x4000608c)
                0x0000000040006014                PROVIDE (slc_pause_from_host, 0x40006014)
                0x0000000040005c1c                PROVIDE (slc_reattach, 0x40005c1c)
                0x000000004000603c                PROVIDE (slc_resume_from_host, 0x4000603c)
                0x0000000040005dc0                PROVIDE (slc_select_tohost_gpio, 0x40005dc0)
                0x0000000040005db8                PROVIDE (slc_select_tohost_gpio_mode, 0x40005db8)
                0x0000000040005de4                PROVIDE (slc_send_to_host_chain, 0x40005de4)
                0x0000000040006068                PROVIDE (slc_set_host_io_max_window, 0x40006068)
                0x0000000040005f10                PROVIDE (slc_to_host_chain_recycle, 0x40005f10)
                0x000000004000264c                PROVIDE (software_reset, 0x4000264c)
                0x0000000040004644                PROVIDE (spi_flash_attach, 0x40004644)
                0x00000000400005f0                PROVIDE (srand, 0x400005f0)
                0x000000004000bdc8                PROVIDE (strcmp, 0x4000bdc8)
                0x000000004000bec8                PROVIDE (strcpy, 0x4000bec8)
                0x000000004000bf4c                PROVIDE (strlen, 0x4000bf4c)
                0x000000004000bfa8                PROVIDE (strncmp, 0x4000bfa8)
                0x000000004000c0a0                PROVIDE (strncpy, 0x4000c0a0)
                0x000000004000e1e0                PROVIDE (strstr, 0x4000e1e0)
                0x0000000040002c64                PROVIDE (timer_insert, 0x40002c64)
                0x000000004000383c                PROVIDE (uartAttach, 0x4000383c)
                0x0000000040003924                PROVIDE (uart_baudrate_detect, 0x40003924)
                0x00000000400038a4                PROVIDE (uart_buff_switch, 0x400038a4)
                0x00000000400039d8                PROVIDE (uart_div_modify, 0x400039d8)
                0x0000000040003bbc                PROVIDE (uart_rx_intr_handler, 0x40003bbc)
                0x0000000040003b8c                PROVIDE (uart_rx_one_char, 0x40003b8c)
                0x0000000040003b64                PROVIDE (uart_rx_one_char_block, 0x40003b64)
                0x0000000040003ec8                PROVIDE (uart_rx_readbuff, 0x40003ec8)
                0x0000000040003b30                PROVIDE (uart_tx_one_char, 0x40003b30)
                0x000000004000bc40                PROVIDE (wepkey_128, 0x4000bc40)
                0x000000004000bb3c                PROVIDE (wepkey_64, 0x4000bb3c)
                0x0000000040000688                PROVIDE (xthal_bcopy, 0x40000688)
                0x000000004000074c                PROVIDE (xthal_copy123, 0x4000074c)
                0x000000004000dd4c                PROVIDE (xthal_get_ccompare, 0x4000dd4c)
                0x000000004000dd38                PROVIDE (xthal_get_ccount, 0x4000dd38)
                0x000000004000dd58                PROVIDE (xthal_get_interrupt, 0x4000dd58)
                0x000000004000dd58                PROVIDE (xthal_get_intread, 0x4000dd58)
                0x00000000400006c4                PROVIDE (xthal_memcpy, 0x400006c4)
                0x000000004000dd40                PROVIDE (xthal_set_ccompare, 0x4000dd40)
                0x000000004000dd60                PROVIDE (xthal_set_intclear, 0x4000dd60)
                0x000000004000e320                PROVIDE (xthal_spill_registers_into_stack_nw, 0x4000e320)
                0x000000004000e324                PROVIDE (xthal_window_spill, 0x4000e324)
                0x000000004000e320                PROVIDE (xthal_window_spill_nw, 0x4000e320)
                0x000000003fffccf0                PROVIDE (Te0, 0x3fffccf0)
                0x000000003fffde10                PROVIDE (UartDev, 0x3fffde10)
                0x000000003fffc714                PROVIDE (flashchip, 0x3fffc714)
OUTPUT(image.elf elf32-xtensa-le)

.comment        0x0000000000000000     0x1541
 .comment       0x0000000000000000       0x22 /tmp/cc1kLqWr.ltrans0.ltrans.o
 .comment       0x0000000000000000       0x22 /tmp/cc1kLqWr.ltrans1.ltrans.o
 .comment       0x0000000000000000       0x22 /tmp/cc1kLqWr.ltrans2.ltrans.o
 .comment       0x0000000000000000       0x47 /home/cnlohr/esp8266/esp_iot_sdk_v1.1.0/lib/libmain.a(eagle_lib.o)
 .comment       0x0000000000000047       0x47 /home/cnlohr/esp8266/esp_iot_sdk_v1.1.0/lib/libmain.a(ets_timer.o)
 .comment       0x000000000000008e       0x49 /home/cnlohr/esp8266/esp_iot_sdk_v1.1.0/lib/libmain.a(mem_manager.o)
 .comment       0x00000000000000d7       0x47 /home/cnlohr/esp8266/esp_iot_sdk_v1.1.0/lib/libmain.a(spi_flash.o)
 .comment       0x000000000000011e       0x49 /home/cnlohr/esp8266/esp_iot_sdk_v1.1.0/lib/libmain.a(spi_overlap.o)
 .comment       0x0000000000000167       0x4c /home/cnlohr/esp8266/esp_iot_sdk_v1.1.0/lib/libmain.a(user_interface.o)
 .comment       0x00000000000001b3       0x46 /home/cnlohr/esp8266/esp_iot_sdk_v1.1.0/lib/libmain.a(app_main.o)
 .comment       0x00000000000001f9       0x4b /home/cnlohr/esp8266/esp_iot_sdk_v1.1.0/lib/libmain.a(eagle_lwip_if.o)
 .comment       0x0000000000000244       0x47 /home/cnlohr/esp8266/esp_iot_sdk_v1.1.0/lib/libnet80211.a(ieee80211.o)
 .comment       0x000000000000028b       0x4e /home/cnlohr/esp8266/esp_iot_sdk_v1.1.0/lib/libnet80211.a(ieee80211_crypto.o)
 .comment       0x00000000000002d9       0x4e /home/cnlohr/esp8266/esp_iot_sdk_v1.1.0/lib/libnet80211.a(ieee80211_hostap.o)
 .comment       0x0000000000000327       0x4a /home/cnlohr/esp8266/esp_iot_sdk_v1.1.0/lib/libnet80211.a(ieee80211_ht.o)
 .comment       0x0000000000000371       0x4d /home/cnlohr/esp8266/esp_iot_sdk_v1.1.0/lib/libnet80211.a(ieee80211_input.o)
 .comment       0x00000000000003be       0x4e /home/cnlohr/esp8266/esp_iot_sdk_v1.1.0/lib/libnet80211.a(ieee80211_output.o)
 .comment       0x000000000000040c       0x4b /home/cnlohr/esp8266/esp_iot_sdk_v1.1.0/lib/libnet80211.a(ieee80211_phy.o)
 .comment       0x0000000000000457       0x4d /home/cnlohr/esp8266/esp_iot_sdk_v1.1.0/lib/libnet80211.a(ieee80211_power.o)
 .comment       0x00000000000004a4       0x4d /home/cnlohr/esp8266/esp_iot_sdk_v1.1.0/lib/libnet80211.a(ieee80211_proto.o)
 .comment       0x00000000000004f1       0x4c /home/cnlohr/esp8266/esp_iot_sdk_v1.1.0/lib/libnet80211.a(ieee80211_scan.o)
 .comment       0x000000000000053d       0x4b /home/cnlohr/esp8266/esp_iot_sdk_v1.1.0/lib/libnet80211.a(ieee80211_sta.o)
 .comment       0x0000000000000588       0x44 /home/cnlohr/esp8266/esp_iot_sdk_v1.1.0/lib/libnet80211.a(wl_chm.o)
 .comment       0x00000000000005cc       0x44 /home/cnlohr/esp8266/esp_iot_sdk_v1.1.0/lib/libnet80211.a(wl_cnx.o)
 .comment       0x0000000000000610       0x4e /home/cnlohr/esp8266/esp_iot_sdk_v1.1.0/lib/libnet80211.a(ieee80211_action.o)
 .comment       0x000000000000065e       0x4b /home/cnlohr/esp8266/esp_iot_sdk_v1.1.0/lib/libnet80211.a(ieee80211_ets.o)
 .comment       0x00000000000006a9       0x42 /home/cnlohr/esp8266/esp_iot_sdk_v1.1.0/lib/liblwip.a(dhcp.o)
 .comment       0x00000000000006eb       0x48 /home/cnlohr/esp8266/esp_iot_sdk_v1.1.0/lib/liblwip.a(dhcpserver.o)
 .comment       0x0000000000000733       0x41 /home/cnlohr/esp8266/esp_iot_sdk_v1.1.0/lib/liblwip.a(dns.o)
 .comment       0x0000000000000774       0x45 /home/cnlohr/esp8266/esp_iot_sdk_v1.1.0/lib/liblwip.a(espconn.o)
 .comment       0x00000000000007b9       0x49 /home/cnlohr/esp8266/esp_iot_sdk_v1.1.0/lib/liblwip.a(espconn_tcp.o)
 .comment       0x0000000000000802       0x49 /home/cnlohr/esp8266/esp_iot_sdk_v1.1.0/lib/liblwip.a(espconn_udp.o)
 .comment       0x000000000000084b       0x44 /home/cnlohr/esp8266/esp_iot_sdk_v1.1.0/lib/liblwip.a(etharp.o)
 .comment       0x000000000000088f       0x42 /home/cnlohr/esp8266/esp_iot_sdk_v1.1.0/lib/liblwip.a(igmp.o)
 .comment       0x00000000000008d1       0x49 /home/cnlohr/esp8266/esp_iot_sdk_v1.1.0/lib/liblwip.a(inet_chksum.o)
 .comment       0x000000000000091a       0x42 /home/cnlohr/esp8266/esp_iot_sdk_v1.1.0/lib/liblwip.a(init.o)
 .comment       0x000000000000095c       0x45 /home/cnlohr/esp8266/esp_iot_sdk_v1.1.0/lib/liblwip.a(ip_addr.o)
 .comment       0x00000000000009a1       0x40 /home/cnlohr/esp8266/esp_iot_sdk_v1.1.0/lib/liblwip.a(ip.o)
 .comment       0x00000000000009e1       0x42 /home/cnlohr/esp8266/esp_iot_sdk_v1.1.0/lib/liblwip.a(mdns.o)
 .comment       0x0000000000000a23       0x42 /home/cnlohr/esp8266/esp_iot_sdk_v1.1.0/lib/liblwip.a(memp.o)
 .comment       0x0000000000000a65       0x43 /home/cnlohr/esp8266/esp_iot_sdk_v1.1.0/lib/liblwip.a(netif.o)
 .comment       0x0000000000000aa8       0x42 /home/cnlohr/esp8266/esp_iot_sdk_v1.1.0/lib/liblwip.a(pbuf.o)
 .comment       0x0000000000000aea       0x41 /home/cnlohr/esp8266/esp_iot_sdk_v1.1.0/lib/liblwip.a(raw.o)
 .comment       0x0000000000000b2b       0x44 /home/cnlohr/esp8266/esp_iot_sdk_v1.1.0/lib/liblwip.a(tcp_in.o)
 .comment       0x0000000000000b6f       0x41 /home/cnlohr/esp8266/esp_iot_sdk_v1.1.0/lib/liblwip.a(tcp.o)
 .comment       0x0000000000000bb0       0x45 /home/cnlohr/esp8266/esp_iot_sdk_v1.1.0/lib/liblwip.a(tcp_out.o)
 .comment       0x0000000000000bf5       0x44 /home/cnlohr/esp8266/esp_iot_sdk_v1.1.0/lib/liblwip.a(timers.o)
 .comment       0x0000000000000c39       0x41 /home/cnlohr/esp8266/esp_iot_sdk_v1.1.0/lib/liblwip.a(udp.o)
 .comment       0x0000000000000c7a       0x42 /home/cnlohr/esp8266/esp_iot_sdk_v1.1.0/lib/liblwip.a(icmp.o)
 .comment       0x0000000000000cbc       0x47 /home/cnlohr/esp8266/esp_iot_sdk_v1.1.0/lib/libwpa.a(ap_config.o)
 .comment       0x0000000000000d03       0x44 /home/cnlohr/esp8266/esp_iot_sdk_v1.1.0/lib/libwpa.a(common.o)
 .comment       0x0000000000000d47       0x47 /home/cnlohr/esp8266/esp_iot_sdk_v1.1.0/lib/libwpa.a(os_xtensa.o)
 .comment       0x0000000000000d8e       0x46 /home/cnlohr/esp8266/esp_iot_sdk_v1.1.0/lib/libwpa.a(wpa_auth.o)
 .comment       0x0000000000000dd4       0x49 /home/cnlohr/esp8266/esp_iot_sdk_v1.1.0/lib/libwpa.a(wpa_auth_ie.o)
 .comment       0x0000000000000e1d       0x41 /home/cnlohr/esp8266/esp_iot_sdk_v1.1.0/lib/libwpa.a(wpa.o)
 .comment       0x0000000000000e5e       0x48 /home/cnlohr/esp8266/esp_iot_sdk_v1.1.0/lib/libwpa.a(wpa_common.o)
 .comment       0x0000000000000ea6       0x47 /home/cnlohr/esp8266/esp_iot_sdk_v1.1.0/lib/libwpa.a(wpa_debug.o)
 .comment       0x0000000000000eed       0x44 /home/cnlohr/esp8266/esp_iot_sdk_v1.1.0/lib/libwpa.a(wpa_ie.o)
 .comment       0x0000000000000f31       0x46 /home/cnlohr/esp8266/esp_iot_sdk_v1.1.0/lib/libwpa.a(wpa_main.o)
 .comment       0x0000000000000f77       0x47 /home/cnlohr/esp8266/esp_iot_sdk_v1.1.0/lib/libwpa.a(wpas_glue.o)
 .comment       0x0000000000000fbe       0x46 /home/cnlohr/esp8266/esp_iot_sdk_v1.1.0/lib/libwpa.a(aes-wrap.o)
 .comment       0x0000000000001004       0x4e /home/cnlohr/esp8266/esp_iot_sdk_v1.1.0/lib/libwpa.a(aes-internal-enc.o)
 .comment       0x0000000000001052       0x53 /home/cnlohr/esp8266/esp_iot_sdk_v1.1.0/lib/libnet80211.a(ieee80211_crypto_ccmp.o)
 .comment       0x00000000000010a5       0x53 /home/cnlohr/esp8266/esp_iot_sdk_v1.1.0/lib/libnet80211.a(ieee80211_crypto_tkip.o)
 .comment       0x00000000000010f8       0x52 /home/cnlohr/esp8266/esp_iot_sdk_v1.1.0/lib/libnet80211.a(ieee80211_crypto_wep.o)
 .comment       0x000000000000114a       0x41 /home/cnlohr/esp8266/esp_iot_sdk_v1.1.0/lib/libphy.a(phy.o)
 .comment       0x000000000000118b       0x4d /home/cnlohr/esp8266/esp_iot_sdk_v1.1.0/lib/libphy.a(phy_chip_v6_ana.o)
 .comment       0x00000000000011d8       0x49 /home/cnlohr/esp8266/esp_iot_sdk_v1.1.0/lib/libphy.a(phy_chip_v6.o)
 .comment       0x0000000000001221       0x4d /home/cnlohr/esp8266/esp_iot_sdk_v1.1.0/lib/libphy.a(phy_chip_v6_cal.o)
 .comment       0x000000000000126e       0x50 /home/cnlohr/esp8266/esp_iot_sdk_v1.1.0/lib/libphy.a(phy_chip_v6_unused.o)
 .comment       0x00000000000012be       0x47 /home/cnlohr/esp8266/esp_iot_sdk_v1.1.0/lib/libphy.a(phy_sleep.o)
 .comment       0x0000000000001305       0x45 /home/cnlohr/esp8266/esp_iot_sdk_v1.1.0/lib/libpp.a(esf_buf.o)
 .comment       0x000000000000134a       0x47 /home/cnlohr/esp8266/esp_iot_sdk_v1.1.0/lib/libpp.a(if_hwctrl.o)
 .comment       0x0000000000001391       0x42 /home/cnlohr/esp8266/esp_iot_sdk_v1.1.0/lib/libpp.a(lmac.o)
 .comment       0x00000000000013d3       0x40 /home/cnlohr/esp8266/esp_iot_sdk_v1.1.0/lib/libpp.a(pm.o)
 .comment       0x0000000000001413       0x40 /home/cnlohr/esp8266/esp_iot_sdk_v1.1.0/lib/libpp.a(pp.o)
 .comment       0x0000000000001453       0x4a /home/cnlohr/esp8266/esp_iot_sdk_v1.1.0/lib/libpp.a(rate_control.o)
 .comment       0x000000000000149d       0x41 /home/cnlohr/esp8266/esp_iot_sdk_v1.1.0/lib/libpp.a(trc.o)
 .comment       0x00000000000014de       0x42 /home/cnlohr/esp8266/esp_iot_sdk_v1.1.0/lib/libpp.a(wdev.o)
 .comment       0x0000000000001520       0x21 /home/cnlohr/esp8266/esp-open-sdk/xtensa-lx106-elf/lib/gcc/xtensa-lx106-elf/4.8.2/libgcc.a(_muldi3.o)
                                         0x22 (size before relaxing)
 .comment       0x0000000000000000       0x22 /home/cnlohr/esp8266/esp-open-sdk/xtensa-lx106-elf/lib/gcc/xtensa-lx106-elf/4.8.2/libgcc.a(_popcountsi2.o)
 .comment       0x0000000000000000       0x22 /home/cnlohr/esp8266/esp-open-sdk/xtensa-lx106-elf/lib/gcc/xtensa-lx106-elf/4.8.2/libgcc.a(_divdi3.o)
 .comment       0x0000000000000000       0x22 /home/cnlohr/esp8266/esp-open-sdk/xtensa-lx106-elf/lib/gcc/xtensa-lx106-elf/4.8.2/libgcc.a(_umoddi3.o)
 .comment       0x0000000000000000       0x22 /home/cnlohr/esp8266/esp-open-sdk/xtensa-lx106-elf/lib/gcc/xtensa-lx106-elf/4.8.2/libgcc.a(_popcount_tab.o)

.xtensa.info    0x0000000000000000       0x38
 .xtensa.info   0x0000000000000000       0x38 /tmp/cc1kLqWr.ltrans0.ltrans.o
 .xtensa.info   0x0000000000000000        0x0 /tmp/cc1kLqWr.ltrans1.ltrans.o
 .xtensa.info   0x0000000000000000        0x0 /tmp/cc1kLqWr.ltrans2.ltrans.o
 .xtensa.info   0x0000000000000000        0x0 /home/cnlohr/esp8266/esp_iot_sdk_v1.1.0/lib/libmain.a(eagle_lib.o)
 .xtensa.info   0x0000000000000000        0x0 /home/cnlohr/esp8266/esp_iot_sdk_v1.1.0/lib/libmain.a(ets_timer.o)
 .xtensa.info   0x0000000000000000        0x0 /home/cnlohr/esp8266/esp_iot_sdk_v1.1.0/lib/libmain.a(mem_manager.o)
 .xtensa.info   0x0000000000000000        0x0 /home/cnlohr/esp8266/esp_iot_sdk_v1.1.0/lib/libmain.a(spi_flash.o)
 .xtensa.info   0x0000000000000000        0x0 /home/cnlohr/esp8266/esp_iot_sdk_v1.1.0/lib/libmain.a(spi_overlap.o)
 .xtensa.info   0x0000000000000000        0x0 /home/cnlohr/esp8266/esp_iot_sdk_v1.1.0/lib/libmain.a(user_interface.o)
 .xtensa.info   0x0000000000000000        0x0 /home/cnlohr/esp8266/esp_iot_sdk_v1.1.0/lib/libmain.a(debug-vector.o)
 .xtensa.info   0x0000000000000000        0x0 /home/cnlohr/esp8266/esp_iot_sdk_v1.1.0/lib/libmain.a(double-vector.o)
 .xtensa.info   0x0000000000000000        0x0 /home/cnlohr/esp8266/esp_iot_sdk_v1.1.0/lib/libmain.a(kernel-vector.o)
 .xtensa.info   0x0000000000000000        0x0 /home/cnlohr/esp8266/esp_iot_sdk_v1.1.0/lib/libmain.a(nmi-vector.o)
 .xtensa.info   0x0000000000000000        0x0 /home/cnlohr/esp8266/esp_iot_sdk_v1.1.0/lib/libmain.a(user-vector.o)
 .xtensa.info   0x0000000000000000        0x0 /home/cnlohr/esp8266/esp_iot_sdk_v1.1.0/lib/libmain.a(vector.o)
 .xtensa.info   0x0000000000000000        0x0 /home/cnlohr/esp8266/esp_iot_sdk_v1.1.0/lib/libmain.a(app_main.o)
 .xtensa.info   0x0000000000000000        0x0 /home/cnlohr/esp8266/esp_iot_sdk_v1.1.0/lib/libmain.a(eagle_lwip_if.o)
 .xtensa.info   0x0000000000000000        0x0 /home/cnlohr/esp8266/esp_iot_sdk_v1.1.0/lib/libnet80211.a(ieee80211.o)
 .xtensa.info   0x0000000000000000        0x0 /home/cnlohr/esp8266/esp_iot_sdk_v1.1.0/lib/libnet80211.a(ieee80211_crypto.o)
 .xtensa.info   0x0000000000000000        0x0 /home/cnlohr/esp8266/esp_iot_sdk_v1.1.0/lib/libnet80211.a(ieee80211_hostap.o)
 .xtensa.info   0x0000000000000000        0x0 /home/cnlohr/esp8266/esp_iot_sdk_v1.1.0/lib/libnet80211.a(ieee80211_ht.o)
 .xtensa.info   0x0000000000000000        0x0 /home/cnlohr/esp8266/esp_iot_sdk_v1.1.0/lib/libnet80211.a(ieee80211_input.o)
 .xtensa.info   0x0000000000000000        0x0 /home/cnlohr/esp8266/esp_iot_sdk_v1.1.0/lib/libnet80211.a(ieee80211_output.o)
 .xtensa.info   0x0000000000000000        0x0 /home/cnlohr/esp8266/esp_iot_sdk_v1.1.0/lib/libnet80211.a(ieee80211_phy.o)
 .xtensa.info   0x0000000000000000        0x0 /home/cnlohr/esp8266/esp_iot_sdk_v1.1.0/lib/libnet80211.a(ieee80211_power.o)
 .xtensa.info   0x0000000000000000        0x0 /home/cnlohr/esp8266/esp_iot_sdk_v1.1.0/lib/libnet80211.a(ieee80211_proto.o)
 .xtensa.info   0x0000000000000000        0x0 /home/cnlohr/esp8266/esp_iot_sdk_v1.1.0/lib/libnet80211.a(ieee80211_scan.o)
 .xtensa.info   0x0000000000000000        0x0 /home/cnlohr/esp8266/esp_iot_sdk_v1.1.0/lib/libnet80211.a(ieee80211_sta.o)
 .xtensa.info   0x0000000000000000        0x0 /home/cnlohr/esp8266/esp_iot_sdk_v1.1.0/lib/libnet80211.a(wl_chm.o)
 .xtensa.info   0x0000000000000000        0x0 /home/cnlohr/esp8266/esp_iot_sdk_v1.1.0/lib/libnet80211.a(wl_cnx.o)
 .xtensa.info   0x0000000000000000        0x0 /home/cnlohr/esp8266/esp_iot_sdk_v1.1.0/lib/libnet80211.a(ieee80211_action.o)
 .xtensa.info   0x0000000000000000        0x0 /home/cnlohr/esp8266/esp_iot_sdk_v1.1.0/lib/libnet80211.a(ieee80211_ets.o)
 .xtensa.info   0x0000000000000000        0x0 /home/cnlohr/esp8266/esp_iot_sdk_v1.1.0/lib/liblwip.a(dhcp.o)
 .xtensa.info   0x0000000000000000        0x0 /home/cnlohr/esp8266/esp_iot_sdk_v1.1.0/lib/liblwip.a(dhcpserver.o)
 .xtensa.info   0x0000000000000000        0x0 /home/cnlohr/esp8266/esp_iot_sdk_v1.1.0/lib/liblwip.a(dns.o)
 .xtensa.info   0x0000000000000000        0x0 /home/cnlohr/esp8266/esp_iot_sdk_v1.1.0/lib/liblwip.a(espconn.o)
 .xtensa.info   0x0000000000000000        0x0 /home/cnlohr/esp8266/esp_iot_sdk_v1.1.0/lib/liblwip.a(espconn_tcp.o)
 .xtensa.info   0x0000000000000000        0x0 /home/cnlohr/esp8266/esp_iot_sdk_v1.1.0/lib/liblwip.a(espconn_udp.o)
 .xtensa.info   0x0000000000000000        0x0 /home/cnlohr/esp8266/esp_iot_sdk_v1.1.0/lib/liblwip.a(etharp.o)
 .xtensa.info   0x0000000000000000        0x0 /home/cnlohr/esp8266/esp_iot_sdk_v1.1.0/lib/liblwip.a(igmp.o)
 .xtensa.info   0x0000000000000000        0x0 /home/cnlohr/esp8266/esp_iot_sdk_v1.1.0/lib/liblwip.a(inet_chksum.o)
 .xtensa.info   0x0000000000000000        0x0 /home/cnlohr/esp8266/esp_iot_sdk_v1.1.0/lib/liblwip.a(init.o)
 .xtensa.info   0x0000000000000000        0x0 /home/cnlohr/esp8266/esp_iot_sdk_v1.1.0/lib/liblwip.a(ip_addr.o)
 .xtensa.info   0x0000000000000000        0x0 /home/cnlohr/esp8266/esp_iot_sdk_v1.1.0/lib/liblwip.a(ip.o)
 .xtensa.info   0x0000000000000000        0x0 /home/cnlohr/esp8266/esp_iot_sdk_v1.1.0/lib/liblwip.a(mdns.o)
 .xtensa.info   0x0000000000000000        0x0 /home/cnlohr/esp8266/esp_iot_sdk_v1.1.0/lib/liblwip.a(memp.o)
 .xtensa.info   0x0000000000000000        0x0 /home/cnlohr/esp8266/esp_iot_sdk_v1.1.0/lib/liblwip.a(netif.o)
 .xtensa.info   0x0000000000000000        0x0 /home/cnlohr/esp8266/esp_iot_sdk_v1.1.0/lib/liblwip.a(pbuf.o)
 .xtensa.info   0x0000000000000000        0x0 /home/cnlohr/esp8266/esp_iot_sdk_v1.1.0/lib/liblwip.a(raw.o)
 .xtensa.info   0x0000000000000000        0x0 /home/cnlohr/esp8266/esp_iot_sdk_v1.1.0/lib/liblwip.a(tcp_in.o)
 .xtensa.info   0x0000000000000000        0x0 /home/cnlohr/esp8266/esp_iot_sdk_v1.1.0/lib/liblwip.a(tcp.o)
 .xtensa.info   0x0000000000000000        0x0 /home/cnlohr/esp8266/esp_iot_sdk_v1.1.0/lib/liblwip.a(tcp_out.o)
 .xtensa.info   0x0000000000000000        0x0 /home/cnlohr/esp8266/esp_iot_sdk_v1.1.0/lib/liblwip.a(timers.o)
 .xtensa.info   0x0000000000000000        0x0 /home/cnlohr/esp8266/esp_iot_sdk_v1.1.0/lib/liblwip.a(udp.o)
 .xtensa.info   0x0000000000000000        0x0 /home/cnlohr/esp8266/esp_iot_sdk_v1.1.0/lib/liblwip.a(icmp.o)
 .xtensa.info   0x0000000000000000        0x0 /home/cnlohr/esp8266/esp_iot_sdk_v1.1.0/lib/libwpa.a(ap_config.o)
 .xtensa.info   0x0000000000000000        0x0 /home/cnlohr/esp8266/esp_iot_sdk_v1.1.0/lib/libwpa.a(common.o)
 .xtensa.info   0x0000000000000000        0x0 /home/cnlohr/esp8266/esp_iot_sdk_v1.1.0/lib/libwpa.a(os_xtensa.o)
 .xtensa.info   0x0000000000000000        0x0 /home/cnlohr/esp8266/esp_iot_sdk_v1.1.0/lib/libwpa.a(wpa_auth.o)
 .xtensa.info   0x0000000000000000        0x0 /home/cnlohr/esp8266/esp_iot_sdk_v1.1.0/lib/libwpa.a(wpa_auth_ie.o)
 .xtensa.info   0x0000000000000000        0x0 /home/cnlohr/esp8266/esp_iot_sdk_v1.1.0/lib/libwpa.a(wpa.o)
 .xtensa.info   0x0000000000000000        0x0 /home/cnlohr/esp8266/esp_iot_sdk_v1.1.0/lib/libwpa.a(wpa_common.o)
 .xtensa.info   0x0000000000000000        0x0 /home/cnlohr/esp8266/esp_iot_sdk_v1.1.0/lib/libwpa.a(wpa_debug.o)
 .xtensa.info   0x0000000000000000        0x0 /home/cnlohr/esp8266/esp_iot_sdk_v1.1.0/lib/libwpa.a(wpa_ie.o)
 .xtensa.info   0x0000000000000000        0x0 /home/cnlohr/esp8266/esp_iot_sdk_v1.1.0/lib/libwpa.a(wpa_main.o)
 .xtensa.info   0x0000000000000000        0x0 /home/cnlohr/esp8266/esp_iot_sdk_v1.1.0/lib/libwpa.a(wpas_glue.o)
 .xtensa.info   0x0000000000000000        0x0 /home/cnlohr/esp8266/esp_iot_sdk_v1.1.0/lib/libwpa.a(aes-wrap.o)
 .xtensa.info   0x0000000000000000        0x0 /home/cnlohr/esp8266/esp_iot_sdk_v1.1.0/lib/libwpa.a(aes-internal-enc.o)
 .xtensa.info   0x0000000000000000        0x0 /home/cnlohr/esp8266/esp_iot_sdk_v1.1.0/lib/libnet80211.a(ieee80211_crypto_ccmp.o)
 .xtensa.info   0x0000000000000000        0x0 /home/cnlohr/esp8266/esp_iot_sdk_v1.1.0/lib/libnet80211.a(ieee80211_crypto_tkip.o)
 .xtensa.info   0x0000000000000000        0x0 /home/cnlohr/esp8266/esp_iot_sdk_v1.1.0/lib/libnet80211.a(ieee80211_crypto_wep.o)
 .xtensa.info   0x0000000000000000        0x0 /home/cnlohr/esp8266/esp_iot_sdk_v1.1.0/lib/libphy.a(phy.o)
 .xtensa.info   0x0000000000000000        0x0 /home/cnlohr/esp8266/esp_iot_sdk_v1.1.0/lib/libphy.a(phy_chip_v6_ana.o)
 .xtensa.info   0x0000000000000000        0x0 /home/cnlohr/esp8266/esp_iot_sdk_v1.1.0/lib/libphy.a(phy_chip_v6.o)
 .xtensa.info   0x0000000000000000        0x0 /home/cnlohr/esp8266/esp_iot_sdk_v1.1.0/lib/libphy.a(phy_chip_v6_cal.o)
 .xtensa.info   0x0000000000000000        0x0 /home/cnlohr/esp8266/esp_iot_sdk_v1.1.0/lib/libphy.a(phy_chip_v6_unused.o)
 .xtensa.info   0x0000000000000000        0x0 /home/cnlohr/esp8266/esp_iot_sdk_v1.1.0/lib/libphy.a(phy_sleep.o)
 .xtensa.info   0x0000000000000000        0x0 /home/cnlohr/esp8266/esp_iot_sdk_v1.1.0/lib/libpp.a(esf_buf.o)
 .xtensa.info   0x0000000000000000        0x0 /home/cnlohr/esp8266/esp_iot_sdk_v1.1.0/lib/libpp.a(if_hwctrl.o)
 .xtensa.info   0x0000000000000000        0x0 /home/cnlohr/esp8266/esp_iot_sdk_v1.1.0/lib/libpp.a(lmac.o)
 .xtensa.info   0x0000000000000000        0x0 /home/cnlohr/esp8266/esp_iot_sdk_v1.1.0/lib/libpp.a(pm.o)
 .xtensa.info   0x0000000000000000        0x0 /home/cnlohr/esp8266/esp_iot_sdk_v1.1.0/lib/libpp.a(pp.o)
 .xtensa.info   0x0000000000000000        0x0 /home/cnlohr/esp8266/esp_iot_sdk_v1.1.0/lib/libpp.a(rate_control.o)
 .xtensa.info   0x0000000000000000        0x0 /home/cnlohr/esp8266/esp_iot_sdk_v1.1.0/lib/libpp.a(trc.o)
 .xtensa.info   0x0000000000000000        0x0 /home/cnlohr/esp8266/esp_iot_sdk_v1.1.0/lib/libpp.a(wdev.o)
 .xtensa.info   0x0000000000000000        0x0 /home/cnlohr/esp8266/esp-open-sdk/xtensa-lx106-elf/lib/gcc/xtensa-lx106-elf/4.8.2/libgcc.a(_divsi3.o)
 .xtensa.info   0x0000000000000000        0x0 /home/cnlohr/esp8266/esp-open-sdk/xtensa-lx106-elf/lib/gcc/xtensa-lx106-elf/4.8.2/libgcc.a(_modsi3.o)
 .xtensa.info   0x0000000000000000        0x0 /home/cnlohr/esp8266/esp-open-sdk/xtensa-lx106-elf/lib/gcc/xtensa-lx106-elf/4.8.2/libgcc.a(_udivsi3.o)
 .xtensa.info   0x0000000000000000        0x0 /home/cnlohr/esp8266/esp-open-sdk/xtensa-lx106-elf/lib/gcc/xtensa-lx106-elf/4.8.2/libgcc.a(_umodsi3.o)
 .xtensa.info   0x0000000000000000        0x0 /home/cnlohr/esp8266/esp-open-sdk/xtensa-lx106-elf/lib/gcc/xtensa-lx106-elf/4.8.2/libgcc.a(_ashrdi3.o)
 .xtensa.info   0x0000000000000000        0x0 /home/cnlohr/esp8266/esp-open-sdk/xtensa-lx106-elf/lib/gcc/xtensa-lx106-elf/4.8.2/libgcc.a(_addsubsf3.o)
 .xtensa.info   0x0000000000000000        0x0 /home/cnlohr/esp8266/esp-open-sdk/xtensa-lx106-elf/lib/gcc/xtensa-lx106-elf/4.8.2/libgcc.a(_mulsf3.o)
 .xtensa.info   0x0000000000000000        0x0 /home/cnlohr/esp8266/esp-open-sdk/xtensa-lx106-elf/lib/gcc/xtensa-lx106-elf/4.8.2/libgcc.a(_divsf3.o)
 .xtensa.info   0x0000000000000000        0x0 /home/cnlohr/esp8266/esp-open-sdk/xtensa-lx106-elf/lib/gcc/xtensa-lx106-elf/4.8.2/libgcc.a(_fixsfsi.o)
 .xtensa.info   0x0000000000000000        0x0 /home/cnlohr/esp8266/esp-open-sdk/xtensa-lx106-elf/lib/gcc/xtensa-lx106-elf/4.8.2/libgcc.a(_fixunssfsi.o)
 .xtensa.info   0x0000000000000000        0x0 /home/cnlohr/esp8266/esp-open-sdk/xtensa-lx106-elf/lib/gcc/xtensa-lx106-elf/4.8.2/libgcc.a(_floatsisf.o)
 .xtensa.info   0x0000000000000000        0x0 /home/cnlohr/esp8266/esp-open-sdk/xtensa-lx106-elf/lib/gcc/xtensa-lx106-elf/4.8.2/libgcc.a(_muldf3.o)
 .xtensa.info   0x0000000000000000        0x0 /home/cnlohr/esp8266/esp-open-sdk/xtensa-lx106-elf/lib/gcc/xtensa-lx106-elf/4.8.2/libgcc.a(_divdf3.o)
 .xtensa.info   0x0000000000000000        0x0 /home/cnlohr/esp8266/esp-open-sdk/xtensa-lx106-elf/lib/gcc/xtensa-lx106-elf/4.8.2/libgcc.a(_fixdfsi.o)
 .xtensa.info   0x0000000000000000        0x0 /home/cnlohr/esp8266/esp-open-sdk/xtensa-lx106-elf/lib/gcc/xtensa-lx106-elf/4.8.2/libgcc.a(_floatsidf.o)
 .xtensa.info   0x0000000000000000        0x0 /home/cnlohr/esp8266/esp-open-sdk/xtensa-lx106-elf/lib/gcc/xtensa-lx106-elf/4.8.2/libgcc.a(_truncdfsf2.o)
 .xtensa.info   0x0000000000000000        0x0 /home/cnlohr/esp8266/esp-open-sdk/xtensa-lx106-elf/lib/gcc/xtensa-lx106-elf/4.8.2/libgcc.a(_muldi3.o)
 .xtensa.info   0x0000000000000000        0x0 /home/cnlohr/esp8266/esp-open-sdk/xtensa-lx106-elf/lib/gcc/xtensa-lx106-elf/4.8.2/libgcc.a(_popcountsi2.o)
 .xtensa.info   0x0000000000000000        0x0 /home/cnlohr/esp8266/esp-open-sdk/xtensa-lx106-elf/lib/gcc/xtensa-lx106-elf/4.8.2/libgcc.a(_divdi3.o)
 .xtensa.info   0x0000000000000000        0x0 /home/cnlohr/esp8266/esp-open-sdk/xtensa-lx106-elf/lib/gcc/xtensa-lx106-elf/4.8.2/libgcc.a(_umoddi3.o)
 .xtensa.info   0x0000000000000000        0x0 /home/cnlohr/esp8266/esp-open-sdk/xtensa-lx106-elf/lib/gcc/xtensa-lx106-elf/4.8.2/libgcc.a(_umulsidi3.o)
 .xtensa.info   0x0000000000000000        0x0 /home/cnlohr/esp8266/esp-open-sdk/xtensa-lx106-elf/lib/gcc/xtensa-lx106-elf/4.8.2/libgcc.a(_popcount_tab.o)
 .xtensa.info   0x0000000000000000        0x0 /home/cnlohr/esp8266/esp-open-sdk/xtensa-lx106-elf/lib/gcc/xtensa-lx106-elf/4.8.2/libgcc.a(_extendsfdf2.o)

.debug_line     0x0000000000000000     0x2c97
 .debug_line    0x0000000000000000      0x162 /home/cnlohr/esp8266/esp-open-sdk/xtensa-lx106-elf/lib/gcc/xtensa-lx106-elf/4.8.2/libgcc.a(_divsi3.o)
 .debug_line    0x0000000000000162      0x120 /home/cnlohr/esp8266/esp-open-sdk/xtensa-lx106-elf/lib/gcc/xtensa-lx106-elf/4.8.2/libgcc.a(_modsi3.o)
 .debug_line    0x0000000000000282      0x132 /home/cnlohr/esp8266/esp-open-sdk/xtensa-lx106-elf/lib/gcc/xtensa-lx106-elf/4.8.2/libgcc.a(_udivsi3.o)
 .debug_line    0x00000000000003b4      0x102 /home/cnlohr/esp8266/esp-open-sdk/xtensa-lx106-elf/lib/gcc/xtensa-lx106-elf/4.8.2/libgcc.a(_umodsi3.o)
 .debug_line    0x00000000000004b6       0xc0 /home/cnlohr/esp8266/esp-open-sdk/xtensa-lx106-elf/lib/gcc/xtensa-lx106-elf/4.8.2/libgcc.a(_ashrdi3.o)
 .debug_line    0x0000000000000576      0x4c3 /home/cnlohr/esp8266/esp-open-sdk/xtensa-lx106-elf/lib/gcc/xtensa-lx106-elf/4.8.2/libgcc.a(_addsubsf3.o)
 .debug_line    0x0000000000000a39      0x385 /home/cnlohr/esp8266/esp-open-sdk/xtensa-lx106-elf/lib/gcc/xtensa-lx106-elf/4.8.2/libgcc.a(_mulsf3.o)
 .debug_line    0x0000000000000dbe      0x31f /home/cnlohr/esp8266/esp-open-sdk/xtensa-lx106-elf/lib/gcc/xtensa-lx106-elf/4.8.2/libgcc.a(_divsf3.o)
 .debug_line    0x00000000000010dd      0x11b /home/cnlohr/esp8266/esp-open-sdk/xtensa-lx106-elf/lib/gcc/xtensa-lx106-elf/4.8.2/libgcc.a(_fixsfsi.o)
 .debug_line    0x00000000000011f8      0x14b /home/cnlohr/esp8266/esp-open-sdk/xtensa-lx106-elf/lib/gcc/xtensa-lx106-elf/4.8.2/libgcc.a(_fixunssfsi.o)
 .debug_line    0x0000000000001343      0x127 /home/cnlohr/esp8266/esp-open-sdk/xtensa-lx106-elf/lib/gcc/xtensa-lx106-elf/4.8.2/libgcc.a(_floatsisf.o)
 .debug_line    0x000000000000146a      0x633 /home/cnlohr/esp8266/esp-open-sdk/xtensa-lx106-elf/lib/gcc/xtensa-lx106-elf/4.8.2/libgcc.a(_muldf3.o)
 .debug_line    0x0000000000001a9d      0x4db /home/cnlohr/esp8266/esp-open-sdk/xtensa-lx106-elf/lib/gcc/xtensa-lx106-elf/4.8.2/libgcc.a(_divdf3.o)
 .debug_line    0x0000000000001f78      0x12d /home/cnlohr/esp8266/esp-open-sdk/xtensa-lx106-elf/lib/gcc/xtensa-lx106-elf/4.8.2/libgcc.a(_fixdfsi.o)
 .debug_line    0x00000000000020a5      0x109 /home/cnlohr/esp8266/esp-open-sdk/xtensa-lx106-elf/lib/gcc/xtensa-lx106-elf/4.8.2/libgcc.a(_floatsidf.o)
 .debug_line    0x00000000000021ae      0x1db /home/cnlohr/esp8266/esp-open-sdk/xtensa-lx106-elf/lib/gcc/xtensa-lx106-elf/4.8.2/libgcc.a(_truncdfsf2.o)
 .debug_line    0x0000000000002389       0xd1 /home/cnlohr/esp8266/esp-open-sdk/xtensa-lx106-elf/lib/gcc/xtensa-lx106-elf/4.8.2/libgcc.a(_muldi3.o)
 .debug_line    0x000000000000245a       0xcd /home/cnlohr/esp8266/esp-open-sdk/xtensa-lx106-elf/lib/gcc/xtensa-lx106-elf/4.8.2/libgcc.a(_popcountsi2.o)
 .debug_line    0x0000000000002527      0x218 /home/cnlohr/esp8266/esp-open-sdk/xtensa-lx106-elf/lib/gcc/xtensa-lx106-elf/4.8.2/libgcc.a(_divdi3.o)
 .debug_line    0x000000000000273f      0x23b /home/cnlohr/esp8266/esp-open-sdk/xtensa-lx106-elf/lib/gcc/xtensa-lx106-elf/4.8.2/libgcc.a(_umoddi3.o)
 .debug_line    0x000000000000297a      0x13e /home/cnlohr/esp8266/esp-open-sdk/xtensa-lx106-elf/lib/gcc/xtensa-lx106-elf/4.8.2/libgcc.a(_umulsidi3.o)
 .debug_line    0x0000000000002ab8       0x82 /home/cnlohr/esp8266/esp-open-sdk/xtensa-lx106-elf/lib/gcc/xtensa-lx106-elf/4.8.2/libgcc.a(_popcount_tab.o)
 .debug_line    0x0000000000002b3a      0x15d /home/cnlohr/esp8266/esp-open-sdk/xtensa-lx106-elf/lib/gcc/xtensa-lx106-elf/4.8.2/libgcc.a(_extendsfdf2.o)

.debug_info     0x0000000000000000     0x2141
 .debug_info    0x0000000000000000       0xff /home/cnlohr/esp8266/esp-open-sdk/xtensa-lx106-elf/lib/gcc/xtensa-lx106-elf/4.8.2/libgcc.a(_divsi3.o)
 .debug_info    0x00000000000000ff       0xff /home/cnlohr/esp8266/esp-open-sdk/xtensa-lx106-elf/lib/gcc/xtensa-lx106-elf/4.8.2/libgcc.a(_modsi3.o)
 .debug_info    0x00000000000001fe       0xff /home/cnlohr/esp8266/esp-open-sdk/xtensa-lx106-elf/lib/gcc/xtensa-lx106-elf/4.8.2/libgcc.a(_udivsi3.o)
 .debug_info    0x00000000000002fd       0xff /home/cnlohr/esp8266/esp-open-sdk/xtensa-lx106-elf/lib/gcc/xtensa-lx106-elf/4.8.2/libgcc.a(_umodsi3.o)
 .debug_info    0x00000000000003fc       0xff /home/cnlohr/esp8266/esp-open-sdk/xtensa-lx106-elf/lib/gcc/xtensa-lx106-elf/4.8.2/libgcc.a(_ashrdi3.o)
 .debug_info    0x00000000000004fb      0x100 /home/cnlohr/esp8266/esp-open-sdk/xtensa-lx106-elf/lib/gcc/xtensa-lx106-elf/4.8.2/libgcc.a(_addsubsf3.o)
 .debug_info    0x00000000000005fb      0x100 /home/cnlohr/esp8266/esp-open-sdk/xtensa-lx106-elf/lib/gcc/xtensa-lx106-elf/4.8.2/libgcc.a(_mulsf3.o)
 .debug_info    0x00000000000006fb      0x100 /home/cnlohr/esp8266/esp-open-sdk/xtensa-lx106-elf/lib/gcc/xtensa-lx106-elf/4.8.2/libgcc.a(_divsf3.o)
 .debug_info    0x00000000000007fb      0x100 /home/cnlohr/esp8266/esp-open-sdk/xtensa-lx106-elf/lib/gcc/xtensa-lx106-elf/4.8.2/libgcc.a(_fixsfsi.o)
 .debug_info    0x00000000000008fb      0x100 /home/cnlohr/esp8266/esp-open-sdk/xtensa-lx106-elf/lib/gcc/xtensa-lx106-elf/4.8.2/libgcc.a(_fixunssfsi.o)
 .debug_info    0x00000000000009fb      0x100 /home/cnlohr/esp8266/esp-open-sdk/xtensa-lx106-elf/lib/gcc/xtensa-lx106-elf/4.8.2/libgcc.a(_floatsisf.o)
 .debug_info    0x0000000000000afb      0x100 /home/cnlohr/esp8266/esp-open-sdk/xtensa-lx106-elf/lib/gcc/xtensa-lx106-elf/4.8.2/libgcc.a(_muldf3.o)
 .debug_info    0x0000000000000bfb      0x100 /home/cnlohr/esp8266/esp-open-sdk/xtensa-lx106-elf/lib/gcc/xtensa-lx106-elf/4.8.2/libgcc.a(_divdf3.o)
 .debug_info    0x0000000000000cfb      0x100 /home/cnlohr/esp8266/esp-open-sdk/xtensa-lx106-elf/lib/gcc/xtensa-lx106-elf/4.8.2/libgcc.a(_fixdfsi.o)
 .debug_info    0x0000000000000dfb      0x100 /home/cnlohr/esp8266/esp-open-sdk/xtensa-lx106-elf/lib/gcc/xtensa-lx106-elf/4.8.2/libgcc.a(_floatsidf.o)
 .debug_info    0x0000000000000efb      0x100 /home/cnlohr/esp8266/esp-open-sdk/xtensa-lx106-elf/lib/gcc/xtensa-lx106-elf/4.8.2/libgcc.a(_truncdfsf2.o)
 .debug_info    0x0000000000000ffb      0x174 /home/cnlohr/esp8266/esp-open-sdk/xtensa-lx106-elf/lib/gcc/xtensa-lx106-elf/4.8.2/libgcc.a(_muldi3.o)
 .debug_info    0x000000000000116f       0xff /home/cnlohr/esp8266/esp-open-sdk/xtensa-lx106-elf/lib/gcc/xtensa-lx106-elf/4.8.2/libgcc.a(_popcountsi2.o)
 .debug_info    0x000000000000126e      0x60c /home/cnlohr/esp8266/esp-open-sdk/xtensa-lx106-elf/lib/gcc/xtensa-lx106-elf/4.8.2/libgcc.a(_divdi3.o)
 .debug_info    0x000000000000187a      0x61d /home/cnlohr/esp8266/esp-open-sdk/xtensa-lx106-elf/lib/gcc/xtensa-lx106-elf/4.8.2/libgcc.a(_umoddi3.o)
 .debug_info    0x0000000000001e97       0xff /home/cnlohr/esp8266/esp-open-sdk/xtensa-lx106-elf/lib/gcc/xtensa-lx106-elf/4.8.2/libgcc.a(_umulsidi3.o)
 .debug_info    0x0000000000001f96       0xab /home/cnlohr/esp8266/esp-open-sdk/xtensa-lx106-elf/lib/gcc/xtensa-lx106-elf/4.8.2/libgcc.a(_popcount_tab.o)
 .debug_info    0x0000000000002041      0x100 /home/cnlohr/esp8266/esp-open-sdk/xtensa-lx106-elf/lib/gcc/xtensa-lx106-elf/4.8.2/libgcc.a(_extendsfdf2.o)

.debug_abbrev   0x0000000000000000      0x6a3
 .debug_abbrev  0x0000000000000000       0x14 /home/cnlohr/esp8266/esp-open-sdk/xtensa-lx106-elf/lib/gcc/xtensa-lx106-elf/4.8.2/libgcc.a(_divsi3.o)
 .debug_abbrev  0x0000000000000014       0x14 /home/cnlohr/esp8266/esp-open-sdk/xtensa-lx106-elf/lib/gcc/xtensa-lx106-elf/4.8.2/libgcc.a(_modsi3.o)
 .debug_abbrev  0x0000000000000028       0x14 /home/cnlohr/esp8266/esp-open-sdk/xtensa-lx106-elf/lib/gcc/xtensa-lx106-elf/4.8.2/libgcc.a(_udivsi3.o)
 .debug_abbrev  0x000000000000003c       0x14 /home/cnlohr/esp8266/esp-open-sdk/xtensa-lx106-elf/lib/gcc/xtensa-lx106-elf/4.8.2/libgcc.a(_umodsi3.o)
 .debug_abbrev  0x0000000000000050       0x14 /home/cnlohr/esp8266/esp-open-sdk/xtensa-lx106-elf/lib/gcc/xtensa-lx106-elf/4.8.2/libgcc.a(_ashrdi3.o)
 .debug_abbrev  0x0000000000000064       0x14 /home/cnlohr/esp8266/esp-open-sdk/xtensa-lx106-elf/lib/gcc/xtensa-lx106-elf/4.8.2/libgcc.a(_addsubsf3.o)
 .debug_abbrev  0x0000000000000078       0x14 /home/cnlohr/esp8266/esp-open-sdk/xtensa-lx106-elf/lib/gcc/xtensa-lx106-elf/4.8.2/libgcc.a(_mulsf3.o)
 .debug_abbrev  0x000000000000008c       0x14 /home/cnlohr/esp8266/esp-open-sdk/xtensa-lx106-elf/lib/gcc/xtensa-lx106-elf/4.8.2/libgcc.a(_divsf3.o)
 .debug_abbrev  0x00000000000000a0       0x14 /home/cnlohr/esp8266/esp-open-sdk/xtensa-lx106-elf/lib/gcc/xtensa-lx106-elf/4.8.2/libgcc.a(_fixsfsi.o)
 .debug_abbrev  0x00000000000000b4       0x14 /home/cnlohr/esp8266/esp-open-sdk/xtensa-lx106-elf/lib/gcc/xtensa-lx106-elf/4.8.2/libgcc.a(_fixunssfsi.o)
 .debug_abbrev  0x00000000000000c8       0x14 /home/cnlohr/esp8266/esp-open-sdk/xtensa-lx106-elf/lib/gcc/xtensa-lx106-elf/4.8.2/libgcc.a(_floatsisf.o)
 .debug_abbrev  0x00000000000000dc       0x14 /home/cnlohr/esp8266/esp-open-sdk/xtensa-lx106-elf/lib/gcc/xtensa-lx106-elf/4.8.2/libgcc.a(_muldf3.o)
 .debug_abbrev  0x00000000000000f0       0x14 /home/cnlohr/esp8266/esp-open-sdk/xtensa-lx106-elf/lib/gcc/xtensa-lx106-elf/4.8.2/libgcc.a(_divdf3.o)
 .debug_abbrev  0x0000000000000104       0x14 /home/cnlohr/esp8266/esp-open-sdk/xtensa-lx106-elf/lib/gcc/xtensa-lx106-elf/4.8.2/libgcc.a(_fixdfsi.o)
 .debug_abbrev  0x0000000000000118       0x14 /home/cnlohr/esp8266/esp-open-sdk/xtensa-lx106-elf/lib/gcc/xtensa-lx106-elf/4.8.2/libgcc.a(_floatsidf.o)
 .debug_abbrev  0x000000000000012c       0x14 /home/cnlohr/esp8266/esp-open-sdk/xtensa-lx106-elf/lib/gcc/xtensa-lx106-elf/4.8.2/libgcc.a(_truncdfsf2.o)
 .debug_abbrev  0x0000000000000140       0xfd /home/cnlohr/esp8266/esp-open-sdk/xtensa-lx106-elf/lib/gcc/xtensa-lx106-elf/4.8.2/libgcc.a(_muldi3.o)
 .debug_abbrev  0x000000000000023d       0x9b /home/cnlohr/esp8266/esp-open-sdk/xtensa-lx106-elf/lib/gcc/xtensa-lx106-elf/4.8.2/libgcc.a(_popcountsi2.o)
 .debug_abbrev  0x00000000000002d8      0x1a3 /home/cnlohr/esp8266/esp-open-sdk/xtensa-lx106-elf/lib/gcc/xtensa-lx106-elf/4.8.2/libgcc.a(_divdi3.o)
 .debug_abbrev  0x000000000000047b      0x1a3 /home/cnlohr/esp8266/esp-open-sdk/xtensa-lx106-elf/lib/gcc/xtensa-lx106-elf/4.8.2/libgcc.a(_umoddi3.o)
 .debug_abbrev  0x000000000000061e       0x14 /home/cnlohr/esp8266/esp-open-sdk/xtensa-lx106-elf/lib/gcc/xtensa-lx106-elf/4.8.2/libgcc.a(_umulsidi3.o)
 .debug_abbrev  0x0000000000000632       0x5d /home/cnlohr/esp8266/esp-open-sdk/xtensa-lx106-elf/lib/gcc/xtensa-lx106-elf/4.8.2/libgcc.a(_popcount_tab.o)
 .debug_abbrev  0x000000000000068f       0x14 /home/cnlohr/esp8266/esp-open-sdk/xtensa-lx106-elf/lib/gcc/xtensa-lx106-elf/4.8.2/libgcc.a(_extendsfdf2.o)

.debug_aranges  0x0000000000000000      0x2d8
 .debug_aranges
                0x0000000000000000       0x20 /home/cnlohr/esp8266/esp-open-sdk/xtensa-lx106-elf/lib/gcc/xtensa-lx106-elf/4.8.2/libgcc.a(_divsi3.o)
 .debug_aranges
                0x0000000000000020       0x20 /home/cnlohr/esp8266/esp-open-sdk/xtensa-lx106-elf/lib/gcc/xtensa-lx106-elf/4.8.2/libgcc.a(_modsi3.o)
 .debug_aranges
                0x0000000000000040       0x20 /home/cnlohr/esp8266/esp-open-sdk/xtensa-lx106-elf/lib/gcc/xtensa-lx106-elf/4.8.2/libgcc.a(_udivsi3.o)
 .debug_aranges
                0x0000000000000060       0x20 /home/cnlohr/esp8266/esp-open-sdk/xtensa-lx106-elf/lib/gcc/xtensa-lx106-elf/4.8.2/libgcc.a(_umodsi3.o)
 .debug_aranges
                0x0000000000000080       0x20 /home/cnlohr/esp8266/esp-open-sdk/xtensa-lx106-elf/lib/gcc/xtensa-lx106-elf/4.8.2/libgcc.a(_ashrdi3.o)
 .debug_aranges
                0x00000000000000a0       0x20 /home/cnlohr/esp8266/esp-open-sdk/xtensa-lx106-elf/lib/gcc/xtensa-lx106-elf/4.8.2/libgcc.a(_addsubsf3.o)
 .debug_aranges
                0x00000000000000c0       0x20 /home/cnlohr/esp8266/esp-open-sdk/xtensa-lx106-elf/lib/gcc/xtensa-lx106-elf/4.8.2/libgcc.a(_mulsf3.o)
 .debug_aranges
                0x00000000000000e0       0x20 /home/cnlohr/esp8266/esp-open-sdk/xtensa-lx106-elf/lib/gcc/xtensa-lx106-elf/4.8.2/libgcc.a(_divsf3.o)
 .debug_aranges
                0x0000000000000100       0x20 /home/cnlohr/esp8266/esp-open-sdk/xtensa-lx106-elf/lib/gcc/xtensa-lx106-elf/4.8.2/libgcc.a(_fixsfsi.o)
 .debug_aranges
                0x0000000000000120       0x20 /home/cnlohr/esp8266/esp-open-sdk/xtensa-lx106-elf/lib/gcc/xtensa-lx106-elf/4.8.2/libgcc.a(_fixunssfsi.o)
 .debug_aranges
                0x0000000000000140       0x20 /home/cnlohr/esp8266/esp-open-sdk/xtensa-lx106-elf/lib/gcc/xtensa-lx106-elf/4.8.2/libgcc.a(_floatsisf.o)
 .debug_aranges
                0x0000000000000160       0x20 /home/cnlohr/esp8266/esp-open-sdk/xtensa-lx106-elf/lib/gcc/xtensa-lx106-elf/4.8.2/libgcc.a(_muldf3.o)
 .debug_aranges
                0x0000000000000180       0x20 /home/cnlohr/esp8266/esp-open-sdk/xtensa-lx106-elf/lib/gcc/xtensa-lx106-elf/4.8.2/libgcc.a(_divdf3.o)
 .debug_aranges
                0x00000000000001a0       0x20 /home/cnlohr/esp8266/esp-open-sdk/xtensa-lx106-elf/lib/gcc/xtensa-lx106-elf/4.8.2/libgcc.a(_fixdfsi.o)
 .debug_aranges
                0x00000000000001c0       0x20 /home/cnlohr/esp8266/esp-open-sdk/xtensa-lx106-elf/lib/gcc/xtensa-lx106-elf/4.8.2/libgcc.a(_floatsidf.o)
 .debug_aranges
                0x00000000000001e0       0x20 /home/cnlohr/esp8266/esp-open-sdk/xtensa-lx106-elf/lib/gcc/xtensa-lx106-elf/4.8.2/libgcc.a(_truncdfsf2.o)
 .debug_aranges
                0x0000000000000200       0x20 /home/cnlohr/esp8266/esp-open-sdk/xtensa-lx106-elf/lib/gcc/xtensa-lx106-elf/4.8.2/libgcc.a(_muldi3.o)
 .debug_aranges
                0x0000000000000220       0x20 /home/cnlohr/esp8266/esp-open-sdk/xtensa-lx106-elf/lib/gcc/xtensa-lx106-elf/4.8.2/libgcc.a(_popcountsi2.o)
 .debug_aranges
                0x0000000000000240       0x20 /home/cnlohr/esp8266/esp-open-sdk/xtensa-lx106-elf/lib/gcc/xtensa-lx106-elf/4.8.2/libgcc.a(_divdi3.o)
 .debug_aranges
                0x0000000000000260       0x20 /home/cnlohr/esp8266/esp-open-sdk/xtensa-lx106-elf/lib/gcc/xtensa-lx106-elf/4.8.2/libgcc.a(_umoddi3.o)
 .debug_aranges
                0x0000000000000280       0x20 /home/cnlohr/esp8266/esp-open-sdk/xtensa-lx106-elf/lib/gcc/xtensa-lx106-elf/4.8.2/libgcc.a(_umulsidi3.o)
 .debug_aranges
                0x00000000000002a0       0x18 /home/cnlohr/esp8266/esp-open-sdk/xtensa-lx106-elf/lib/gcc/xtensa-lx106-elf/4.8.2/libgcc.a(_popcount_tab.o)
 .debug_aranges
                0x00000000000002b8       0x20 /home/cnlohr/esp8266/esp-open-sdk/xtensa-lx106-elf/lib/gcc/xtensa-lx106-elf/4.8.2/libgcc.a(_extendsfdf2.o)

.debug_frame    0x0000000000000000       0xb0
 .debug_frame   0x0000000000000000       0x30 /home/cnlohr/esp8266/esp-open-sdk/xtensa-lx106-elf/lib/gcc/xtensa-lx106-elf/4.8.2/libgcc.a(_muldi3.o)
 .debug_frame   0x0000000000000030       0x20 /home/cnlohr/esp8266/esp-open-sdk/xtensa-lx106-elf/lib/gcc/xtensa-lx106-elf/4.8.2/libgcc.a(_popcountsi2.o)
 .debug_frame   0x0000000000000050       0x30 /home/cnlohr/esp8266/esp-open-sdk/xtensa-lx106-elf/lib/gcc/xtensa-lx106-elf/4.8.2/libgcc.a(_divdi3.o)
 .debug_frame   0x0000000000000080       0x30 /home/cnlohr/esp8266/esp-open-sdk/xtensa-lx106-elf/lib/gcc/xtensa-lx106-elf/4.8.2/libgcc.a(_umoddi3.o)

.debug_loc      0x0000000000000000     0x1693
 .debug_loc     0x0000000000000000       0x50 /home/cnlohr/esp8266/esp-open-sdk/xtensa-lx106-elf/lib/gcc/xtensa-lx106-elf/4.8.2/libgcc.a(_muldi3.o)
 .debug_loc     0x0000000000000050       0x77 /home/cnlohr/esp8266/esp-open-sdk/xtensa-lx106-elf/lib/gcc/xtensa-lx106-elf/4.8.2/libgcc.a(_popcountsi2.o)
 .debug_loc     0x00000000000000c7      0xb87 /home/cnlohr/esp8266/esp-open-sdk/xtensa-lx106-elf/lib/gcc/xtensa-lx106-elf/4.8.2/libgcc.a(_divdi3.o)
 .debug_loc     0x0000000000000c4e      0xa45 /home/cnlohr/esp8266/esp-open-sdk/xtensa-lx106-elf/lib/gcc/xtensa-lx106-elf/4.8.2/libgcc.a(_umoddi3.o)

.debug_str      0x0000000000000000      0x2d6
 .debug_str     0x0000000000000000      0x1de /home/cnlohr/esp8266/esp-open-sdk/xtensa-lx106-elf/lib/gcc/xtensa-lx106-elf/4.8.2/libgcc.a(_muldi3.o)
                                        0x212 (size before relaxing)
 .debug_str     0x00000000000001de       0x2e /home/cnlohr/esp8266/esp-open-sdk/xtensa-lx106-elf/lib/gcc/xtensa-lx106-elf/4.8.2/libgcc.a(_popcountsi2.o)
                                        0x1f3 (size before relaxing)
 .debug_str     0x000000000000020c       0xc0 /home/cnlohr/esp8266/esp-open-sdk/xtensa-lx106-elf/lib/gcc/xtensa-lx106-elf/4.8.2/libgcc.a(_divdi3.o)
                                        0x268 (size before relaxing)
 .debug_str     0x00000000000002cc        0xa /home/cnlohr/esp8266/esp-open-sdk/xtensa-lx106-elf/lib/gcc/xtensa-lx106-elf/4.8.2/libgcc.a(_umoddi3.o)
                                        0x269 (size before relaxing)
 .debug_str     0x0000000000000000      0x1dd /home/cnlohr/esp8266/esp-open-sdk/xtensa-lx106-elf/lib/gcc/xtensa-lx106-elf/4.8.2/libgcc.a(_popcount_tab.o)

.debug_ranges   0x0000000000000000       0xf8
 .debug_ranges  0x0000000000000000       0x60 /home/cnlohr/esp8266/esp-open-sdk/xtensa-lx106-elf/lib/gcc/xtensa-lx106-elf/4.8.2/libgcc.a(_divdi3.o)
 .debug_ranges  0x0000000000000060       0x98 /home/cnlohr/esp8266/esp-open-sdk/xtensa-lx106-elf/lib/gcc/xtensa-lx106-elf/4.8.2/libgcc.a(_umoddi3.o)
